(dp0
Vnodes
p1
(dp2
V#345:210
p3
(dp4
VN
p5
I1
sVclass
p6
VSynapse
p7
sVname
p8
VL5_L2
p9
ssV#357:121
p10
(dp11
VN
p12
I56
sVclass
p13
VSynapse
p14
sVname
p15
VL2_L5
p16
ssV#340:11
p17
(dp18
Vuname
p19
VL5-A
p20
sVname
p21
VL5
p22
sVclass
p23
VNeuron
p24
ssV#330:505
p25
(dp26
Vname
p27
VR5
p28
sVclass
p29
VNeuron
p30
ssV#361:179
p31
(dp32
VN
p33
I7
sVclass
p34
VSynapse
p35
sVname
p36
VL5_L2
p37
ssV#322:447
p38
(dp39
Vname
p40
VR4
p41
sVclass
p42
VNeuron
p43
ssV#332:515
p44
(dp45
Vname
p46
VC3
p47
sVclass
p48
VNeuron
p49
ssV#324:529
p50
(dp51
Vname
p52
VT1
p53
sVclass
p54
VNeuron
p55
ssV#357:78
p56
(dp57
VN
p58
I1
sVclass
p59
VSynapse
p60
sVname
p61
VL3_Lawf1_2
p62
ssV#334:515
p63
(dp64
Vname
p65
VC3
p66
sVclass
p67
VNeuron
p68
ssV#323:234
p69
(dp70
Vname
p71
VR3
p72
sVclass
p73
VNeuron
p74
ssV#368:223
p75
(dp76
VN
p77
I1
sVclass
p78
VSynapse
p79
sVname
p80
VL5_L1
p81
ssV#326:220
p82
(dp83
Vname
p84
VL2
p85
sVclass
p86
VNeuron
p87
ssV#348:294
p88
(dp89
VN
p90
I2
sVclass
p91
VSynapse
p92
sVname
p93
VL3_Lawf1_2
p94
ssV#345:111
p95
(dp96
VN
p97
I10
sVclass
p98
VSynapse
p99
sVname
p100
VL5_L2
p101
ssV#336:6
p102
(dp103
Vuname
p104
VL2-A
p105
sVname
p106
VL2
p107
sVclass
p108
VNeuron
p109
ssV#328:303
p110
(dp111
Vname
p112
VR5
p113
sVclass
p114
VNeuron
p115
ssV#345:296
p116
(dp117
VN
p118
I1
sVclass
p119
VSynapse
p120
sVname
p121
VL3_Lawf2_0
p122
ssV#364:247
p123
(dp124
VN
p125
I1
sVclass
p126
VSynapse
p127
sVname
p128
VLawf1_2_L3
p129
ssV#348:50
p130
(dp131
VN
p132
I9
sVclass
p133
VSynapse
p134
sVname
p135
VL2_L5
p136
ssV#329:204
p137
(dp138
Vname
p139
VR2
p140
sVclass
p141
VNeuron
p142
ssV#361:131
p143
(dp144
VN
p145
I1
sVclass
p146
VSynapse
p147
sVname
p148
VL2_Lawf1_2
p149
ssV#321:6
p150
(dp151
Vuname
p152
VL1-R
p153
sVname
p154
VL1
p155
sVclass
p156
VNeuron
p157
ssV#350:296
p158
(dp159
VN
p160
I1
sVclass
p161
VSynapse
p162
sVname
p163
VL3_L3
p164
ssV#321:254
p165
(dp166
Vname
p167
VR6
p168
sVclass
p169
VNeuron
p170
ssV#331:17
p171
(dp172
Vuname
p173
VL1-E
p174
sVname
p175
VL1
p176
sVclass
p177
VNeuron
p178
ssV#334:1
p179
(dp180
Vuname
p181
VT1-F
p182
sVname
p183
VT1
p184
sVclass
p185
VNeuron
p186
ssV#321:417
p187
(dp188
Vname
p189
VR5
p190
sVclass
p191
VNeuron
p192
ssV#330:513
p193
(dp194
Vname
p195
VR6
p196
sVclass
p197
VNeuron
p198
ssV#330:9
p199
(dp200
Vuname
p201
VLawf1-0
p202
sVname
p203
VLawf1_0
p204
sVclass
p205
VNeuron
p206
ssV#365:326
p207
(dp208
VN
p209
I191
sVclass
p210
VSynapse
p211
sVname
p212
VL2_T1
p213
ssV#324:383
p214
(dp215
Vname
p216
VR1
p217
sVclass
p218
VNeuron
p219
ssV#323:280
p220
(dp221
Vname
p222
VR1
p223
sVclass
p224
VNeuron
p225
ssV#330:3
p226
(dp227
Vuname
p228
VL3-E
p229
sVname
p230
VL3
p231
sVclass
p232
VNeuron
p233
ssV#330:1
p234
(dp235
Vuname
p236
VL2-B
p237
sVname
p238
VL2
p239
sVclass
p240
VNeuron
p241
ssV#330:0
p242
(dp243
Vuname
p244
VL3-A
p245
sVname
p246
VL3
p247
sVclass
p248
VNeuron
p249
ssV#360:118
p250
(dp251
VN
p252
I66
sVclass
p253
VSynapse
p254
sVname
p255
VL1_L5
p256
ssV#325:14
p257
(dp258
Vuname
p259
VT1-B
p260
sVname
p261
VT1
p262
sVclass
p263
VNeuron
p264
ssV#325:17
p265
(dp266
Vuname
p267
VL3-K
p268
sVname
p269
VL3
p270
sVclass
p271
VNeuron
p272
ssV#323:529
p273
(dp274
Vname
p275
VT1
p276
sVclass
p277
VNeuron
p278
ssV#326:338
p279
(dp280
Vname
p281
VL4
p282
sVclass
p283
VNeuron
p284
ssV#367:239
p285
(dp286
VN
p287
I1
sVclass
p288
VSynapse
p289
sVname
p290
VL1_L1
p291
ssV#324:569
p292
(dp293
Vname
p294
VL5
p295
sVclass
p296
VNeuron
p297
ssV#348:122
p298
(dp299
VN
p300
I1
sVclass
p301
VSynapse
p302
sVname
p303
VL5_L5
p304
ssV#339:433
p305
(dp306
Vname
p307
VR4
p308
sVclass
p309
VNeuron
p310
ssV#361:260
p311
(dp312
VN
p313
I80
sVclass
p314
VSynapse
p315
sVname
p316
VL2_L5
p317
ssV#322:2
p318
(dp319
Vuname
p320
VL1-Q
p321
sVname
p322
VL1
p323
sVclass
p324
VNeuron
p325
ssV#363:301
p326
(dp327
VN
p328
I1
sVclass
p329
VSynapse
p330
sVname
p331
VL3_L4
p332
ssV#329:18
p333
(dp334
Vuname
p335
VL3-F
p336
sVname
p337
VL3
p338
sVclass
p339
VNeuron
p340
ssV#334:11
p341
(dp342
Vuname
p343
VLawf1-1
p344
sVname
p345
VLawf1_1
p346
sVclass
p347
VNeuron
p348
ssV#358:65
p349
(dp350
VN
p351
I2
sVclass
p352
VSynapse
p353
sVname
p354
VL2_L4
p355
ssV#339:336
p356
(dp357
Vname
p358
VR3
p359
sVclass
p360
VNeuron
p361
ssV#325:217
p362
(dp363
Vname
p364
VR2
p365
sVclass
p366
VNeuron
p367
ssV#335:305
p368
(dp369
Vname
p370
VR1
p371
sVclass
p372
VNeuron
p373
ssV#340:284
p374
(dp375
Vname
p376
VR6
p377
sVclass
p378
VNeuron
p379
ssV#323:509
p380
(dp381
Vname
p382
VC2
p383
sVclass
p384
VNeuron
p385
ssV#362:359
p386
(dp387
VN
p388
I1
sVclass
p389
VSynapse
p390
sVname
p391
VL3_Lawf1_0
p392
ssV#327:2
p393
(dp394
Vuname
p395
VL5-L
p396
sVname
p397
VL5
p398
sVclass
p399
VNeuron
p400
ssV#321:324
p401
(dp402
Vname
p403
VR4
p404
sVclass
p405
VNeuron
p406
ssV#338:437
p407
(dp408
Vname
p409
VR4
p410
sVclass
p411
VNeuron
p412
ssV#343:15
p413
(dp414
Vuname
p415
VL1-K
p416
sVname
p417
VL1
p418
sVclass
p419
VNeuron
p420
ssV#340:442
p421
(dp422
Vname
p423
VR6
p424
sVclass
p425
VNeuron
p426
ssV#368:184
p427
(dp428
VN
p429
I10
sVclass
p430
VSynapse
p431
sVname
p432
VT1_L2
p433
ssV#322:251
p434
(dp435
Vname
p436
VR5
p437
sVclass
p438
VNeuron
p439
ssV#368:180
p440
(dp441
VN
p442
I2
sVclass
p443
VSynapse
p444
sVname
p445
VL5_L5
p446
ssV#350:55
p447
(dp448
VN
p449
I2
sVclass
p450
VSynapse
p451
sVname
p452
VLawf1_2_L3
p453
ssV#335:412
p454
(dp455
Vname
p456
VR3
p457
sVclass
p458
VNeuron
p459
ssV#334:510
p460
(dp461
Vname
p462
VR3
p463
sVclass
p464
VNeuron
p465
ssV#334:214
p466
(dp467
Vname
p468
VC2
p469
sVclass
p470
VNeuron
p471
ssV#359:119
p472
(dp473
VN
p474
I117
sVclass
p475
VSynapse
p476
sVname
p477
VL1_L5
p478
ssV#356:86
p479
(dp480
VN
p481
I1
sVclass
p482
VSynapse
p483
sVname
p484
VT1_L1
p485
ssV#344:10
p486
(dp487
Vuname
p488
VL5-J
p489
sVname
p490
VL5
p491
sVclass
p492
VNeuron
p493
ssV#362:299
p494
(dp495
VN
p496
I75
sVclass
p497
VSynapse
p498
sVname
p499
VL2_L5
p500
ssV#330:524
p501
(dp502
Vname
p503
VR3
p504
sVclass
p505
VNeuron
p506
ssV#358:347
p507
(dp508
VN
p509
I77
sVclass
p510
VSynapse
p511
sVname
p512
VL1_L5
p513
ssV#342:495
p514
(dp515
Vname
p516
VR3
p517
sVclass
p518
VNeuron
p519
ssV#357:207
p520
(dp521
VN
p522
I1
sVclass
p523
VSynapse
p524
sVname
p525
VL5_L5
p526
ssV#328:11
p527
(dp528
Vuname
p529
VL5-B
p530
sVname
p531
VL5
p532
sVclass
p533
VNeuron
p534
ssV#341:13
p535
(dp536
Vuname
p537
VL3-Q
p538
sVname
p539
VL3
p540
sVclass
p541
VNeuron
p542
ssV#341:12
p543
(dp544
Vuname
p545
VL4-D
p546
sVname
p547
VL4
p548
sVclass
p549
VNeuron
p550
ssV#331:226
p551
(dp552
Vname
p553
VR4
p554
sVclass
p555
VNeuron
p556
ssV#322:234
p557
(dp558
Vname
p559
VR2
p560
sVclass
p561
VNeuron
p562
ssV#358:227
p563
(dp564
VN
p565
I3
sVclass
p566
VSynapse
p567
sVname
p568
VT1_L2
p569
ssV#335:391
p570
(dp571
Vname
p572
VR2
p573
sVclass
p574
VNeuron
p575
ssV#345:237
p576
(dp577
VN
p578
I177
sVclass
p579
VSynapse
p580
sVname
p581
VL2_T1
p582
ssV#332:2
p583
(dp584
Vuname
p585
VL3-D
p586
sVname
p587
VL3
p588
sVclass
p589
VNeuron
p590
ssV#344:528
p591
(dp592
Vname
p593
VT1
p594
sVclass
p595
VNeuron
p596
ssV#337:568
p597
(dp598
Vname
p599
VL3
p600
sVclass
p601
VNeuron
p602
ssV#347:172
p603
(dp604
VN
p605
I22
sVclass
p606
VSynapse
p607
sVname
p608
VL5_L1
p609
ssV#365:97
p610
(dp611
VN
p612
I54
sVclass
p613
VSynapse
p614
sVname
p615
VL2_L5
p616
ssV#322:296
p617
(dp618
Vname
p619
VR2
p620
sVclass
p621
VNeuron
p622
ssV#326:423
p623
(dp624
Vname
p625
VR2
p626
sVclass
p627
VNeuron
p628
ssV#342:239
p629
(dp630
Vname
p631
VR5
p632
sVclass
p633
VNeuron
p634
ssV#328:546
p635
(dp636
Vname
p637
VR5
p638
sVclass
p639
VNeuron
p640
ssV#345:331
p641
(dp642
VN
p643
I117
sVclass
p644
VSynapse
p645
sVname
p646
VL1_L5
p647
ssV#363:72
p648
(dp649
VN
p650
I1
sVclass
p651
VSynapse
p652
sVname
p653
VL1_L5
p654
ssV#323:17
p655
(dp656
Vuname
p657
VL2-R
p658
sVname
p659
VL2
p660
sVclass
p661
VNeuron
p662
ssV#344:585
p663
(dp664
Vname
p665
VR5
p666
sVclass
p667
VNeuron
p668
ssV#352:356
p669
(dp670
VN
p671
I1
sVclass
p672
VSynapse
p673
sVname
p674
VL5_L5
p675
ssV#328:16
p676
(dp677
Vuname
p678
VL4-B
p679
sVname
p680
VL4
p681
sVclass
p682
VNeuron
p683
ssV#334:443
p684
(dp685
Vname
p686
VR5
p687
sVclass
p688
VNeuron
p689
ssV#360:226
p690
(dp691
VN
p692
I1
sVclass
p693
VSynapse
p694
sVname
p695
VL5_L5
p696
ssV#323:256
p697
(dp698
Vname
p699
VR4
p700
sVclass
p701
VNeuron
p702
ssV#344:11
p703
(dp704
Vjanelia_id
p705
V19640
p706
sVuname
p707
VT1-home
p708
sVname
p709
VT1
p710
sVclass
p711
VNeuron
p712
ssV#328:338
p713
(dp714
Vname
p715
VL4
p716
sVclass
p717
VNeuron
p718
ssV#358:116
p719
(dp720
VN
p721
I1
sVclass
p722
VSynapse
p723
sVname
p724
VL5_L5
p725
ssV#358:113
p726
(dp727
VN
p728
I3
sVclass
p729
VSynapse
p730
sVname
p731
VL5_T1
p732
ssV#368:56
p733
(dp734
VN
p735
I1
sVclass
p736
VSynapse
p737
sVname
p738
VL5_T1
p739
ssV#349:237
p740
(dp741
VN
p742
I164
sVclass
p743
VSynapse
p744
sVname
p745
VL2_T1
p746
ssV#328:15
p747
(dp748
Vjanelia_id
p749
V21945
p750
sVuname
p751
VL4-home
p752
sVname
p753
VL4
p754
sVclass
p755
VNeuron
p756
ssV#344:572
p757
(dp758
Vname
p759
VR5
p760
sVclass
p761
VNeuron
p762
ssV#361:343
p763
(dp764
VN
p765
I4
sVclass
p766
VSynapse
p767
sVname
p768
VL1_L5
p769
ssV#361:208
p770
(dp771
VN
p772
I156
sVclass
p773
VSynapse
p774
sVname
p775
VL1_L5
p776
ssV#351:215
p777
(dp778
VN
p779
I2
sVclass
p780
VSynapse
p781
sVname
p782
VL1_L5
p783
ssV#323:428
p784
(dp785
Vname
p786
VR6
p787
sVclass
p788
VNeuron
p789
ssV#351:110
p790
(dp791
VN
p792
I2
sVclass
p793
VSynapse
p794
sVname
p795
VL5_T1
p796
ssV#351:291
p797
(dp798
VN
p799
I1
sVclass
p800
VSynapse
p801
sVname
p802
VLawf1_2_L3
p803
ssV#329:524
p804
(dp805
Vname
p806
VR2
p807
sVclass
p808
VNeuron
p809
ssV#368:217
p810
(dp811
VN
p812
I2
sVclass
p813
VSynapse
p814
sVname
p815
VT1_L5
p816
ssV#323:11
p817
(dp818
Vuname
p819
VL1-B
p820
sVname
p821
VL1
p822
sVclass
p823
VNeuron
p824
ssV#348:209
p825
(dp826
VN
p827
I62
sVclass
p828
VSynapse
p829
sVname
p830
VL2_L5
p831
ssV#357:400
p832
(dp833
VN
p834
I1
sVclass
p835
VSynapse
p836
sVname
p837
VL3_L4
p838
ssV#338:363
p839
(dp840
Vname
p841
VR6
p842
sVclass
p843
VNeuron
p844
ssV#341:232
p845
(dp846
Vname
p847
VR4
p848
sVclass
p849
VNeuron
p850
ssV#324:220
p851
(dp852
Vname
p853
VL2
p854
sVclass
p855
VNeuron
p856
ssV#354:73
p857
(dp858
VN
p859
I1
sVclass
p860
VSynapse
p861
sVname
p862
VLawf1_0_L3
p863
ssV#364:294
p864
(dp865
VN
p866
I1
sVclass
p867
VSynapse
p868
sVname
p869
VL2_L2
p870
ssV#326:387
p871
(dp872
Vname
p873
VR4
p874
sVclass
p875
VNeuron
p876
ssV#324:509
p877
(dp878
Vname
p879
VC2
p880
sVclass
p881
VNeuron
p882
ssV#355:171
p883
(dp884
VN
p885
I4
sVclass
p886
VSynapse
p887
sVname
p888
VT1_L2
p889
ssV#367:315
p890
(dp891
VN
p892
I1
sVclass
p893
VSynapse
p894
sVname
p895
VL4_L5
p896
ssV#367:78
p897
(dp898
VN
p899
I1
sVclass
p900
VSynapse
p901
sVname
p902
VT1_L5
p903
ssV#326:219
p904
(dp905
Vname
p906
VR4
p907
sVclass
p908
VNeuron
p909
ssV#330:313
p910
(dp911
Vname
p912
VR4
p913
sVclass
p914
VNeuron
p915
ssV#340:344
p916
(dp917
Vname
p918
VR3
p919
sVclass
p920
VNeuron
p921
ssV#365:373
p922
(dp923
VN
p924
I205
sVclass
p925
VSynapse
p926
sVname
p927
VL2_T1
p928
ssV#345:83
p929
(dp930
VN
p931
I3
sVclass
p932
VSynapse
p933
sVname
p934
VL2_L5
p935
ssV#352:254
p936
(dp937
VN
p938
I2
sVclass
p939
VSynapse
p940
sVname
p941
VT1_L5
p942
ssV#333:392
p943
(dp944
Vname
p945
VR1
p946
sVclass
p947
VNeuron
p948
ssV#361:36
p949
(dp950
VN
p951
I1
sVclass
p952
VSynapse
p953
sVname
p954
VL5_L5
p955
ssV#338:465
p956
(dp957
Vname
p958
VR1
p959
sVclass
p960
VNeuron
p961
ssV#337:388
p962
(dp963
Vname
p964
VR2
p965
sVclass
p966
VNeuron
p967
ssV#331:14
p968
(dp969
Vuname
p970
VL4-F
p971
sVname
p972
VL4
p973
sVclass
p974
VNeuron
p975
ssV#340:16
p976
(dp977
Vuname
p978
VL3-C
p979
sVname
p980
VL3
p981
sVclass
p982
VNeuron
p983
ssV#322:509
p984
(dp985
Vname
p986
VC2
p987
sVclass
p988
VNeuron
p989
ssV#325:412
p990
(dp991
Vname
p992
VR6
p993
sVclass
p994
VNeuron
p995
ssV#350:211
p996
(dp997
VN
p998
I2
sVclass
p999
VSynapse
p1000
sVname
p1001
VL5_L5
p1002
ssV#336:10
p1003
(dp1004
Vuname
p1005
VT1-E
p1006
sVname
p1007
VT1
p1008
sVclass
p1009
VNeuron
p1010
ssV#333:312
p1011
(dp1012
Vname
p1013
VR2
p1014
sVclass
p1015
VNeuron
p1016
ssV#351:102
p1017
(dp1018
VN
p1019
I5
sVclass
p1020
VSynapse
p1021
sVname
p1022
VT1_L2
p1023
ssV#331:515
p1024
(dp1025
Vname
p1026
VC3
p1027
sVclass
p1028
VNeuron
p1029
ssV#331:261
p1030
(dp1031
Vname
p1032
VR3
p1033
sVclass
p1034
VNeuron
p1035
ssV#322:569
p1036
(dp1037
Vname
p1038
VL5
p1039
sVclass
p1040
VNeuron
p1041
ssV#334:4
p1042
(dp1043
Vuname
p1044
VL2-P
p1045
sVname
p1046
VL2
p1047
sVclass
p1048
VNeuron
p1049
ssV#339:2
p1050
(dp1051
Vuname
p1052
VL5-Q
p1053
sVname
p1054
VL5
p1055
sVclass
p1056
VNeuron
p1057
ssV#350:94
p1058
(dp1059
VN
p1060
I1
sVclass
p1061
VSynapse
p1062
sVname
p1063
VL5_L5
p1064
ssV#353:103
p1065
(dp1066
VN
p1067
I33
sVclass
p1068
VSynapse
p1069
sVname
p1070
VL5_L1
p1071
ssV#355:317
p1072
(dp1073
VN
p1074
I1
sVclass
p1075
VSynapse
p1076
sVname
p1077
VL3_Lawf1_0
p1078
ssV#354:64
p1079
(dp1080
VN
p1081
I1
sVclass
p1082
VSynapse
p1083
sVname
p1084
VL5_L5
p1085
ssV#349:387
p1086
(dp1087
VN
p1088
I33
sVclass
p1089
VSynapse
p1090
sVname
p1091
VL5_L1
p1092
ssV#361:233
p1093
(dp1094
VN
p1095
I121
sVclass
p1096
VSynapse
p1097
sVname
p1098
VL1_L5
p1099
ssV#344:260
p1100
(dp1101
Vname
p1102
VR3
p1103
sVclass
p1104
VNeuron
p1105
ssV#322:3
p1106
(dp1107
Vuname
p1108
VT1-Q
p1109
sVname
p1110
VT1
p1111
sVclass
p1112
VNeuron
p1113
ssV#356:25
p1114
(dp1115
VN
p1116
I1
sVclass
p1117
VSynapse
p1118
sVname
p1119
VL1_L5
p1120
ssV#346:23
p1121
(dp1122
VN
p1123
I6
sVclass
p1124
VSynapse
p1125
sVname
p1126
VL5_L2
p1127
ssV#337:345
p1128
(dp1129
Vname
p1130
VR1
p1131
sVclass
p1132
VNeuron
p1133
ssV#345:152
p1134
(dp1135
VN
p1136
I43
sVclass
p1137
VSynapse
p1138
sVname
p1139
VL5_L1
p1140
ssV#367:89
p1141
(dp1142
VN
p1143
I1
sVclass
p1144
VSynapse
p1145
sVname
p1146
VL5_L1
p1147
ssV#347:308
p1148
(dp1149
VN
p1150
I1
sVclass
p1151
VSynapse
p1152
sVname
p1153
VL5_L5
p1154
ssV#333:515
p1155
(dp1156
Vname
p1157
VC3
p1158
sVclass
p1159
VNeuron
p1160
ssV#332:225
p1161
(dp1162
Vname
p1163
VR1
p1164
sVclass
p1165
VNeuron
p1166
ssV#324:500
p1167
(dp1168
Vname
p1169
VC3
p1170
sVclass
p1171
VNeuron
p1172
ssV#360:5
p1173
(dp1174
VN
p1175
I1
sVclass
p1176
VSynapse
p1177
sVname
p1178
VL3_Lawf2_0
p1179
ssV#355:11
p1180
(dp1181
VN
p1182
I2
sVclass
p1183
VSynapse
p1184
sVname
p1185
VLawf1_0_Lawf1_2
p1186
ssV#329:241
p1187
(dp1188
Vname
p1189
VR1
p1190
sVclass
p1191
VNeuron
p1192
ssV#328:6
p1193
(dp1194
Vuname
p1195
VL1-F
p1196
sVname
p1197
VL1
p1198
sVclass
p1199
VNeuron
p1200
ssV#357:52
p1201
(dp1202
VN
p1203
I13
sVclass
p1204
VSynapse
p1205
sVname
p1206
VT1_L2
p1207
ssV#342:7
p1208
(dp1209
Vuname
p1210
VL1-P
p1211
sVname
p1212
VL1
p1213
sVclass
p1214
VNeuron
p1215
ssV#345:382
p1216
(dp1217
VN
p1218
I143
sVclass
p1219
VSynapse
p1220
sVname
p1221
VL1_L5
p1222
ssV#331:214
p1223
(dp1224
Vname
p1225
VC2
p1226
sVclass
p1227
VNeuron
p1228
ssV#368:32
p1229
(dp1230
VN
p1231
I1
sVclass
p1232
VSynapse
p1233
sVname
p1234
VT1_L2
p1235
ssV#337:7
p1236
(dp1237
Vuname
p1238
VL1-C
p1239
sVname
p1240
VL1
p1241
sVclass
p1242
VNeuron
p1243
ssV#347:263
p1244
(dp1245
VN
p1246
I1
sVclass
p1247
VSynapse
p1248
sVname
p1249
VLawf1_1_Lawf1_0
p1250
ssV#356:34
p1251
(dp1252
VN
p1253
I105
sVclass
p1254
VSynapse
p1255
sVname
p1256
VL2_T1
p1257
ssV#349:135
p1258
(dp1259
VN
p1260
I2
sVclass
p1261
VSynapse
p1262
sVname
p1263
VL5_L1
p1264
ssV#333:338
p1265
(dp1266
Vname
p1267
VR3
p1268
sVclass
p1269
VNeuron
p1270
ssV#357:170
p1271
(dp1272
VN
p1273
I1
sVclass
p1274
VSynapse
p1275
sVname
p1276
VL2_L4
p1277
ssV#365:282
p1278
(dp1279
VN
p1280
I3
sVclass
p1281
VSynapse
p1282
sVname
p1283
VL5_T1
p1284
ssV#360:82
p1285
(dp1286
VN
p1287
I15
sVclass
p1288
VSynapse
p1289
sVname
p1290
VL1_L5
p1291
ssV#327:486
p1292
(dp1293
Vname
p1294
VR5
p1295
sVclass
p1296
VNeuron
p1297
ssV#337:233
p1298
(dp1299
Vname
p1300
VR4
p1301
sVclass
p1302
VNeuron
p1303
ssV#351:155
p1304
(dp1305
VN
p1306
I155
sVclass
p1307
VSynapse
p1308
sVname
p1309
VL2_T1
p1310
ssV#331:403
p1311
(dp1312
Vname
p1313
VR4
p1314
sVclass
p1315
VNeuron
p1316
ssV#354:177
p1317
(dp1318
VN
p1319
I79
sVclass
p1320
VSynapse
p1321
sVname
p1322
VL2_L5
p1323
ssV#354:176
p1324
(dp1325
VN
p1326
I143
sVclass
p1327
VSynapse
p1328
sVname
p1329
VL2_T1
p1330
ssV#360:192
p1331
(dp1332
VN
p1333
I123
sVclass
p1334
VSynapse
p1335
sVname
p1336
VL1_L5
p1337
ssV#326:9
p1338
(dp1339
Vuname
p1340
VL1-J
p1341
sVname
p1342
VL1
p1343
sVclass
p1344
VNeuron
p1345
ssV#364:56
p1346
(dp1347
VN
p1348
I1
sVclass
p1349
VSynapse
p1350
sVname
p1351
VL5_T1
p1352
ssV#324:18
p1353
(dp1354
Vuname
p1355
VL2-Q
p1356
sVname
p1357
VL2
p1358
sVclass
p1359
VNeuron
p1360
ssV#345:164
p1361
(dp1362
VN
p1363
I37
sVclass
p1364
VSynapse
p1365
sVname
p1366
VL5_L1
p1367
ssV#325:487
p1368
(dp1369
Vname
p1370
VR6
p1371
sVclass
p1372
VNeuron
p1373
ssV#335:402
p1374
(dp1375
Vname
p1376
VT1
p1377
sVclass
p1378
VNeuron
p1379
ssV#340:2
p1380
(dp1381
Vuname
p1382
VL3-P
p1383
sVname
p1384
VL3
p1385
sVclass
p1386
VNeuron
p1387
ssV#321:289
p1388
(dp1389
Vname
p1390
VR3
p1391
sVclass
p1392
VNeuron
p1393
ssV#353:367
p1394
(dp1395
VN
p1396
I1
sVclass
p1397
VSynapse
p1398
sVname
p1399
VL5_L5
p1400
ssV#327:338
p1401
(dp1402
Vname
p1403
VL4
p1404
sVclass
p1405
VNeuron
p1406
ssV#324:0
p1407
(dp1408
Vjanelia_id
p1409
V10358
p1410
sVuname
p1411
VL5-home
p1412
sVname
p1413
VL5
p1414
sVclass
p1415
VNeuron
p1416
ssV#340:405
p1417
(dp1418
Vname
p1419
VR6
p1420
sVclass
p1421
VNeuron
p1422
ssV#359:228
p1423
(dp1424
VN
p1425
I6
sVclass
p1426
VSynapse
p1427
sVname
p1428
VT1_L2
p1429
ssV#324:3
p1430
(dp1431
Vuname
p1432
VLawf2-0
p1433
sVname
p1434
VLawf2_0
p1435
sVclass
p1436
VNeuron
p1437
ssV#337:338
p1438
(dp1439
Vname
p1440
VR2
p1441
sVclass
p1442
VNeuron
p1443
ssV#331:420
p1444
(dp1445
Vname
p1446
VR2
p1447
sVclass
p1448
VNeuron
p1449
ssV#332:214
p1450
(dp1451
Vname
p1452
VC2
p1453
sVclass
p1454
VNeuron
p1455
ssV#326:500
p1456
(dp1457
Vname
p1458
VC3
p1459
sVclass
p1460
VNeuron
p1461
ssV#360:311
p1462
(dp1463
VN
p1464
I2
sVclass
p1465
VSynapse
p1466
sVname
p1467
VL3_Lawf2_1
p1468
ssV#322:18
p1469
(dp1470
Vuname
p1471
VT1-A
p1472
sVname
p1473
VT1
p1474
sVclass
p1475
VNeuron
p1476
ssV#321:502
p1477
(dp1478
Vname
p1479
VR3
p1480
sVclass
p1481
VNeuron
p1482
ssV#335:515
p1483
(dp1484
Vname
p1485
VC3
p1486
sVclass
p1487
VNeuron
p1488
ssV#366:140
p1489
(dp1490
VN
p1491
I1
sVclass
p1492
VSynapse
p1493
sVname
p1494
VL4_Lawf1_2
p1495
ssV#336:206
p1496
(dp1497
Vname
p1498
VR5
p1499
sVclass
p1500
VNeuron
p1501
ssV#356:383
p1502
(dp1503
VN
p1504
I2
sVclass
p1505
VSynapse
p1506
sVname
p1507
VL3_Lawf1_2
p1508
ssV#357:390
p1509
(dp1510
VN
p1511
I4
sVclass
p1512
VSynapse
p1513
sVname
p1514
VL3_Lawf1_0
p1515
ssV#366:389
p1516
(dp1517
VN
p1518
I66
sVclass
p1519
VSynapse
p1520
sVname
p1521
VL2_L5
p1522
ssV#339:17
p1523
(dp1524
Vuname
p1525
VL2-K
p1526
sVname
p1527
VL2
p1528
sVclass
p1529
VNeuron
p1530
ssV#356:290
p1531
(dp1532
VN
p1533
I1
sVclass
p1534
VSynapse
p1535
sVname
p1536
VL5_L1
p1537
ssV#326:16
p1538
(dp1539
Vuname
p1540
VLawf1-2
p1541
sVname
p1542
VLawf1_2
p1543
sVclass
p1544
VNeuron
p1545
ssV#342:207
p1546
(dp1547
Vname
p1548
VR6
p1549
sVclass
p1550
VNeuron
p1551
ssV#331:373
p1552
(dp1553
Vname
p1554
VR1
p1555
sVclass
p1556
VNeuron
p1557
ssV#364:134
p1558
(dp1559
VN
p1560
I3
sVclass
p1561
VSynapse
p1562
sVname
p1563
VL5_L5
p1564
ssV#332:12
p1565
(dp1566
Vuname
p1567
VL4-A
p1568
sVname
p1569
VL4
p1570
sVclass
p1571
VNeuron
p1572
ssV#364:228
p1573
(dp1574
VN
p1575
I36
sVclass
p1576
VSynapse
p1577
sVname
p1578
VL5_L1
p1579
ssV#335:2
p1580
(dp1581
Vuname
p1582
VL2-D
p1583
sVname
p1584
VL2
p1585
sVclass
p1586
VNeuron
p1587
ssV#335:3
p1588
(dp1589
Vuname
p1590
VL5-D
p1591
sVname
p1592
VL5
p1593
sVclass
p1594
VNeuron
p1595
ssV#362:331
p1596
(dp1597
VN
p1598
I2
sVclass
p1599
VSynapse
p1600
sVname
p1601
VL5_L5
p1602
ssV#363:73
p1603
(dp1604
VN
p1605
I6
sVclass
p1606
VSynapse
p1607
sVname
p1608
VT1_L2
p1609
ssV#335:5
p1610
(dp1611
Vuname
p1612
VT1-D
p1613
sVname
p1614
VT1
p1615
sVclass
p1616
VNeuron
p1617
ssV#324:316
p1618
(dp1619
Vname
p1620
VR1
p1621
sVclass
p1622
VNeuron
p1623
ssV#325:509
p1624
(dp1625
Vname
p1626
VC2
p1627
sVclass
p1628
VNeuron
p1629
ssV#357:331
p1630
(dp1631
VN
p1632
I1
sVclass
p1633
VSynapse
p1634
sVname
p1635
VL3_Lawf1_2
p1636
ssV#337:8
p1637
(dp1638
Vuname
p1639
VL5-P
p1640
sVname
p1641
VL5
p1642
sVclass
p1643
VNeuron
p1644
ssV#337:9
p1645
(dp1646
Vuname
p1647
VL5-F
p1648
sVname
p1649
VL5
p1650
sVclass
p1651
VNeuron
p1652
ssV#321:500
p1653
(dp1654
Vname
p1655
VC3
p1656
sVclass
p1657
VNeuron
p1658
ssV#353:160
p1659
(dp1660
VN
p1661
I20
sVclass
p1662
VSynapse
p1663
sVname
p1664
VL2_L5
p1665
ssV#353:310
p1666
(dp1667
VN
p1668
I1
sVclass
p1669
VSynapse
p1670
sVname
p1671
VLawf1_2_Lawf1_1
p1672
ssV#365:392
p1673
(dp1674
VN
p1675
I5
sVclass
p1676
VSynapse
p1677
sVname
p1678
VL5_L2
p1679
ssV#333:3
p1680
(dp1681
Vuname
p1682
VL4-C
p1683
sVname
p1684
VL4
p1685
sVclass
p1686
VNeuron
p1687
ssV#337:0
p1688
(dp1689
Vuname
p1690
VLawf2-1
p1691
sVname
p1692
VLawf2_1
p1693
sVclass
p1694
VNeuron
p1695
ssV#352:264
p1696
(dp1697
VN
p1698
I17
sVclass
p1699
VSynapse
p1700
sVname
p1701
VL2_T1
p1702
ssV#324:14
p1703
(dp1704
Vjanelia_id
p1705
V11544
p1706
sVuname
p1707
VL2-home
p1708
sVname
p1709
VL2
p1710
sVclass
p1711
VNeuron
p1712
ssV#339:568
p1713
(dp1714
Vname
p1715
VL3
p1716
sVclass
p1717
VNeuron
p1718
ssV#333:8
p1719
(dp1720
Vuname
p1721
VL4-K
p1722
sVname
p1723
VL4
p1724
sVclass
p1725
VNeuron
p1726
ssV#333:9
p1727
(dp1728
Vuname
p1729
VL4-E
p1730
sVname
p1731
VL4
p1732
sVclass
p1733
VNeuron
p1734
ssV#365:266
p1735
(dp1736
VN
p1737
I2
sVclass
p1738
VSynapse
p1739
sVname
p1740
VL2_L2
p1741
ssV#365:50
p1742
(dp1743
VN
p1744
I2
sVclass
p1745
VSynapse
p1746
sVname
p1747
VL2_L2
p1748
ssV#321:509
p1749
(dp1750
Vname
p1751
VC2
p1752
sVclass
p1753
VNeuron
p1754
ssV#332:336
p1755
(dp1756
Vname
p1757
VR1
p1758
sVclass
p1759
VNeuron
p1760
ssV#355:44
p1761
(dp1762
VN
p1763
I1
sVclass
p1764
VSynapse
p1765
sVname
p1766
VL5_L2
p1767
ssV#356:122
p1768
(dp1769
VN
p1770
I9
sVclass
p1771
VSynapse
p1772
sVname
p1773
VL5_L1
p1774
ssV#355:344
p1775
(dp1776
VN
p1777
I7
sVclass
p1778
VSynapse
p1779
sVname
p1780
VT1_L2
p1781
ssV#362:252
p1782
(dp1783
VN
p1784
I28
sVclass
p1785
VSynapse
p1786
sVname
p1787
VL5_L1
p1788
ssV#366:374
p1789
(dp1790
VN
p1791
I6
sVclass
p1792
VSynapse
p1793
sVname
p1794
VT1_L5
p1795
ssV#361:294
p1796
(dp1797
VN
p1798
I9
sVclass
p1799
VSynapse
p1800
sVname
p1801
VL5_L2
p1802
ssV#335:467
p1803
(dp1804
Vname
p1805
VR6
p1806
sVclass
p1807
VNeuron
p1808
ssV#323:500
p1809
(dp1810
Vname
p1811
VC3
p1812
sVclass
p1813
VNeuron
p1814
ssV#354:51
p1815
(dp1816
VN
p1817
I1
sVclass
p1818
VSynapse
p1819
sVname
p1820
VL3_Lawf1_0
p1821
ssV#342:9
p1822
(dp1823
Vuname
p1824
VL5-C
p1825
sVname
p1826
VL5
p1827
sVclass
p1828
VNeuron
p1829
ssV#347:327
p1830
(dp1831
VN
p1832
I1
sVclass
p1833
VSynapse
p1834
sVname
p1835
VL2_L2
p1836
ssV#336:415
p1837
(dp1838
Vname
p1839
VR1
p1840
sVclass
p1841
VNeuron
p1842
ssV#329:500
p1843
(dp1844
Vname
p1845
VC3
p1846
sVclass
p1847
VNeuron
p1848
ssV#330:515
p1849
(dp1850
Vname
p1851
VC3
p1852
sVclass
p1853
VNeuron
p1854
ssV#366:308
p1855
(dp1856
VN
p1857
I6
sVclass
p1858
VSynapse
p1859
sVname
p1860
VL5_L2
p1861
ssV#358:314
p1862
(dp1863
VN
p1864
I1
sVclass
p1865
VSynapse
p1866
sVname
p1867
VL5_L5
p1868
ssV#335:17
p1869
(dp1870
Vjanelia_id
p1871
V10319
p1872
sVuname
p1873
VL1-home
p1874
sVname
p1875
VL1
p1876
sVclass
p1877
VNeuron
p1878
ssV#348:200
p1879
(dp1880
VN
p1881
I4
sVclass
p1882
VSynapse
p1883
sVname
p1884
VL5_L2
p1885
ssV#354:11
p1886
(dp1887
VN
p1888
I2
sVclass
p1889
VSynapse
p1890
sVname
p1891
VL3_Lawf1_0
p1892
ssV#350:348
p1893
(dp1894
VN
p1895
I1
sVclass
p1896
VSynapse
p1897
sVname
p1898
VLawf1_2_L3
p1899
ssV#368:289
p1900
(dp1901
VN
p1902
I2
sVclass
p1903
VSynapse
p1904
sVname
p1905
VL5_L5
p1906
ssV#325:500
p1907
(dp1908
Vname
p1909
VC3
p1910
sVclass
p1911
VNeuron
p1912
ssV#321:235
p1913
(dp1914
Vname
p1915
VR5
p1916
sVclass
p1917
VNeuron
p1918
ssV#325:331
p1919
(dp1920
Vname
p1921
VR4
p1922
sVclass
p1923
VNeuron
p1924
ssV#350:345
p1925
(dp1926
VN
p1927
I153
sVclass
p1928
VSynapse
p1929
sVname
p1930
VL1_L5
p1931
ssV#327:509
p1932
(dp1933
Vname
p1934
VC2
p1935
sVclass
p1936
VNeuron
p1937
ssV#362:311
p1938
(dp1939
VN
p1940
I3
sVclass
p1941
VSynapse
p1942
sVname
p1943
VL5_L5
p1944
ssV#344:508
p1945
(dp1946
Vname
p1947
VC2
p1948
sVclass
p1949
VNeuron
p1950
ssV#359:38
p1951
(dp1952
VN
p1953
I202
sVclass
p1954
VSynapse
p1955
sVname
p1956
VL2_T1
p1957
ssV#335:365
p1958
(dp1959
Vname
p1960
VR6
p1961
sVclass
p1962
VNeuron
p1963
ssV#332:17
p1964
(dp1965
Vuname
p1966
VL3-B
p1967
sVname
p1968
VL3
p1969
sVclass
p1970
VNeuron
p1971
ssV#350:72
p1972
(dp1973
VN
p1974
I4
sVclass
p1975
VSynapse
p1976
sVname
p1977
VL1_L5
p1978
ssV#330:214
p1979
(dp1980
Vname
p1981
VC2
p1982
sVclass
p1983
VNeuron
p1984
ssV#356:247
p1985
(dp1986
VN
p1987
I15
sVclass
p1988
VSynapse
p1989
sVname
p1990
VL5_L1
p1991
ssV#344:469
p1992
(dp1993
Vname
p1994
VR5
p1995
sVclass
p1996
VNeuron
p1997
ssV#325:2
p1998
(dp1999
Vuname
p2000
VL2-C
p2001
sVname
p2002
VL2
p2003
sVclass
p2004
VNeuron
p2005
ssV#340:6
p2006
(dp2007
Vuname
p2008
VL5-E
p2009
sVname
p2010
VL5
p2011
sVclass
p2012
VNeuron
p2013
ssV#332:588
p2014
(dp2015
Vname
p2016
VL3
p2017
sVclass
p2018
VNeuron
p2019
ssV#362:130
p2020
(dp2021
VN
p2022
I2
sVclass
p2023
VSynapse
p2024
sVname
p2025
VL5_L5
p2026
ssV#368:201
p2027
(dp2028
VN
p2029
I2
sVclass
p2030
VSynapse
p2031
sVname
p2032
VL1_Lawf2_1
p2033
ssV#329:214
p2034
(dp2035
Vname
p2036
VC2
p2037
sVclass
p2038
VNeuron
p2039
ssV#339:256
p2040
(dp2041
Vname
p2042
VR3
p2043
sVclass
p2044
VNeuron
p2045
ssV#324:13
p2046
(dp2047
Vjanelia_id
p2048
V21913
p2049
sVuname
p2050
VL3-home
p2051
sVname
p2052
VL3
p2053
sVclass
p2054
VNeuron
p2055
ssV#330:465
p2056
(dp2057
Vname
p2058
VR2
p2059
sVclass
p2060
VNeuron
p2061
ssV#329:6
p2062
(dp2063
Vuname
p2064
VL2-E
p2065
sVname
p2066
VL2
p2067
sVclass
p2068
VNeuron
p2069
ssV#333:356
p2070
(dp2071
Vname
p2072
VR2
p2073
sVclass
p2074
VNeuron
p2075
ssV#321:4
p2076
(dp2077
Vuname
p2078
VL1-A
p2079
sVname
p2080
VL1
p2081
sVclass
p2082
VNeuron
p2083
ssV#354:319
p2084
(dp2085
VN
p2086
I2
sVclass
p2087
VSynapse
p2088
sVname
p2089
VL5_L5
p2090
ssV#324:15
p2091
(dp2092
Vuname
p2093
VL1-D
p2094
sVname
p2095
VL1
p2096
sVclass
p2097
VNeuron
p2098
ssV#338:2
p2099
(dp2100
Vuname
p2101
VL2-F
p2102
sVname
p2103
VL2
p2104
sVclass
p2105
VNeuron
p2106
ssV#338:1
p2107
(dp2108
Vuname
p2109
VT1-C
p2110
sVname
p2111
VT1
p2112
sVclass
p2113
VNeuron
p2114
ssV#338:0
p2115
(dp2116
Vuname
p2117
VL4-L
p2118
sVname
p2119
VL4
p2120
sVclass
p2121
VNeuron
p2122
ssV#358:120
p2123
(dp2124
VN
p2125
I10
sVclass
p2126
VSynapse
p2127
sVname
p2128
VL5_L2
p2129
ssV#358:47
p2130
(dp2131
VN
p2132
I17
sVclass
p2133
VSynapse
p2134
sVname
p2135
VL5_L1
p2136
ssV#360:167
p2137
(dp2138
VN
p2139
I1
sVclass
p2140
VSynapse
p2141
sVname
p2142
VL3_Lawf1_2
p2143
ssV#354:262
p2144
(dp2145
VN
p2146
I1
sVclass
p2147
VSynapse
p2148
sVname
p2149
VLawf1_2_L3
p2150
ssV#329:515
p2151
(dp2152
Vname
p2153
VC3
p2154
sVclass
p2155
VNeuron
p2156
ssV#335:11
p2157
(dp2158
Vuname
p2159
VL1-L
p2160
sVname
p2161
VL1
p2162
sVclass
p2163
VNeuron
p2164
ssV#335:12
p2165
(dp2166
Vuname
p2167
VT1-P
p2168
sVname
p2169
VT1
p2170
sVclass
p2171
VNeuron
p2172
ssV#323:282
p2173
(dp2174
Vname
p2175
VR1
p2176
sVclass
p2177
VNeuron
p2178
ssV#323:257
p2179
(dp2180
Vname
p2181
VR6
p2182
sVclass
p2183
VNeuron
p2184
ssV#340:609
p2185
(dp2186
Vname
p2187
VC2
p2188
sVclass
p2189
VNeuron
p2190
ssV#323:4
p2191
(dp2192
Vuname
p2193
VL4-J
p2194
sVname
p2195
VL4
p2196
sVclass
p2197
VNeuron
p2198
sssVedges
p2199
(dp2200
V#345:210
p2201
(dp2202
V#334:4
p2203
(dp2204
V0
p2205
(dp2206
Vclass
p2207
VSendsTo
p2208
ssssV#357:121
p2209
(dp2210
V#342:9
p2211
(dp2212
V0
p2213
(dp2214
Vclass
p2215
VSendsTo
p2216
ssssV#340:11
p2217
(dp2218
V#358:120
p2219
(dp2220
V0
p2221
(dp2222
Vclass
p2223
VSendsTo
p2224
sssV#358:47
p2225
(dp2226
V0
p2227
(dp2228
Vclass
p2229
VSendsTo
p2230
sssV#368:289
p2231
(dp2232
V0
p2233
(dp2234
Vclass
p2235
VSendsTo
p2236
ssssV#330:505
p2237
(dp2238
sV#361:179
p2239
(dp2240
V#330:1
p2241
(dp2242
V0
p2243
(dp2244
Vclass
p2245
VSendsTo
p2246
ssssV#322:447
p2247
(dp2248
sV#332:515
p2249
(dp2250
sV#324:529
p2251
(dp2252
sV#357:78
p2253
(dp2254
V#326:16
p2255
(dp2256
V0
p2257
(dp2258
Vclass
p2259
VSendsTo
p2260
ssssV#334:515
p2261
(dp2262
sV#323:234
p2263
(dp2264
sV#368:223
p2265
(dp2266
V#335:17
p2267
(dp2268
V0
p2269
(dp2270
Vclass
p2271
VSendsTo
p2272
ssssV#326:220
p2273
(dp2274
sV#348:294
p2275
(dp2276
V#326:16
p2277
(dp2278
V0
p2279
(dp2280
Vclass
p2281
VSendsTo
p2282
ssssV#345:111
p2283
(dp2284
V#338:2
p2285
(dp2286
V0
p2287
(dp2288
Vclass
p2289
VSendsTo
p2290
ssssV#336:6
p2291
(dp2292
V#362:299
p2293
(dp2294
V0
p2295
(dp2296
Vclass
p2297
VSendsTo
p2298
sssV#345:237
p2299
(dp2300
V0
p2301
(dp2302
Vclass
p2303
VSendsTo
p2304
sssV#364:294
p2305
(dp2306
V0
p2307
(dp2308
Vclass
p2309
VSendsTo
p2310
ssssV#328:303
p2311
(dp2312
sV#345:296
p2313
(dp2314
V#324:3
p2315
(dp2316
V0
p2317
(dp2318
Vclass
p2319
VSendsTo
p2320
ssssV#364:247
p2321
(dp2322
V#330:3
p2323
(dp2324
V0
p2325
(dp2326
Vclass
p2327
VSendsTo
p2328
ssssV#348:50
p2329
(dp2330
V#339:2
p2331
(dp2332
V0
p2333
(dp2334
Vclass
p2335
VSendsTo
p2336
ssssV#329:204
p2337
(dp2338
sV#361:131
p2339
(dp2340
V#326:16
p2341
(dp2342
V0
p2343
(dp2344
Vclass
p2345
VSendsTo
p2346
ssssV#321:6
p2347
(dp2348
sV#350:296
p2349
(dp2350
V#325:17
p2351
(dp2352
V0
p2353
(dp2354
Vclass
p2355
VSendsTo
p2356
ssssV#321:254
p2357
(dp2358
sV#331:17
p2359
(dp2360
V#345:331
p2361
(dp2362
V0
p2363
(dp2364
Vclass
p2365
VSendsTo
p2366
ssssV#334:1
p2367
(dp2368
V#352:254
p2369
(dp2370
V0
p2371
(dp2372
Vclass
p2373
VSendsTo
p2374
sssV#355:344
p2375
(dp2376
V0
p2377
(dp2378
Vclass
p2379
VSendsTo
p2380
ssssV#321:417
p2381
(dp2382
sV#330:513
p2383
(dp2384
sV#330:9
p2385
(dp2386
V#354:73
p2387
(dp2388
V0
p2389
(dp2390
Vclass
p2391
VSendsTo
p2392
sssV#355:11
p2393
(dp2394
V0
p2395
(dp2396
Vclass
p2397
VSendsTo
p2398
ssssV#365:326
p2399
(dp2400
V#325:14
p2401
(dp2402
V0
p2403
(dp2404
Vclass
p2405
VSendsTo
p2406
ssssV#324:383
p2407
(dp2408
sV#323:280
p2409
(dp2410
sV#330:3
p2411
(dp2412
V#348:294
p2413
(dp2414
V0
p2415
(dp2416
Vclass
p2417
VSendsTo
p2418
sssV#360:5
p2419
(dp2420
V0
p2421
(dp2422
Vclass
p2423
VSendsTo
p2424
ssssV#330:1
p2425
(dp2426
V#354:177
p2427
(dp2428
V0
p2429
(dp2430
Vclass
p2431
VSendsTo
p2432
sssV#365:326
p2433
(dp2434
V0
p2435
(dp2436
Vclass
p2437
VSendsTo
p2438
sssV#357:170
p2439
(dp2440
V0
p2441
(dp2442
Vclass
p2443
VSendsTo
p2444
sssV#365:50
p2445
(dp2446
V0
p2447
(dp2448
Vclass
p2449
VSendsTo
p2450
ssssV#330:0
p2451
(dp2452
sV#360:118
p2453
(dp2454
V#339:2
p2455
(dp2456
V0
p2457
(dp2458
Vclass
p2459
VSendsTo
p2460
ssssV#325:14
p2461
(dp2462
V#363:73
p2463
(dp2464
V0
p2465
(dp2466
Vclass
p2467
VSendsTo
p2468
ssssV#325:17
p2469
(dp2470
V#350:296
p2471
(dp2472
V0
p2473
(dp2474
Vclass
p2475
VSendsTo
p2476
ssssV#323:529
p2477
(dp2478
sV#326:338
p2479
(dp2480
sV#367:239
p2481
(dp2482
V#335:11
p2483
(dp2484
V0
p2485
(dp2486
Vclass
p2487
VSendsTo
p2488
ssssV#324:569
p2489
(dp2490
sV#348:122
p2491
(dp2492
V#327:2
p2493
(dp2494
V0
p2495
(dp2496
Vclass
p2497
VSendsTo
p2498
ssssV#339:433
p2499
(dp2500
sV#361:260
p2501
(dp2502
V#324:0
p2503
(dp2504
V0
p2505
(dp2506
Vclass
p2507
VSendsTo
p2508
ssssV#322:2
p2509
(dp2510
V#351:215
p2511
(dp2512
V0
p2513
(dp2514
Vclass
p2515
VSendsTo
p2516
sssV#360:118
p2517
(dp2518
V0
p2519
(dp2520
Vclass
p2521
VSendsTo
p2522
ssssV#363:301
p2523
(dp2524
V#328:15
p2525
(dp2526
V0
p2527
(dp2528
Vclass
p2529
VSendsTo
p2530
ssssV#329:18
p2531
(dp2532
V#363:301
p2533
(dp2534
V0
p2535
(dp2536
Vclass
p2537
VSendsTo
p2538
sssV#360:311
p2539
(dp2540
V0
p2541
(dp2542
Vclass
p2543
VSendsTo
p2544
sssV#345:296
p2545
(dp2546
V0
p2547
(dp2548
Vclass
p2549
VSendsTo
p2550
ssssV#334:11
p2551
(dp2552
V#347:263
p2553
(dp2554
V0
p2555
(dp2556
Vclass
p2557
VSendsTo
p2558
ssssV#358:65
p2559
(dp2560
V#323:4
p2561
(dp2562
V0
p2563
(dp2564
Vclass
p2565
VSendsTo
p2566
ssssV#339:336
p2567
(dp2568
sV#325:217
p2569
(dp2570
sV#335:305
p2571
(dp2572
sV#340:284
p2573
(dp2574
sV#323:509
p2575
(dp2576
sV#362:359
p2577
(dp2578
V#330:9
p2579
(dp2580
V0
p2581
(dp2582
Vclass
p2583
VSendsTo
p2584
ssssV#327:2
p2585
(dp2586
V#356:122
p2587
(dp2588
V0
p2589
(dp2590
Vclass
p2591
VSendsTo
p2592
sssV#347:308
p2593
(dp2594
V0
p2595
(dp2596
Vclass
p2597
VSendsTo
p2598
ssssV#321:324
p2599
(dp2600
sV#338:437
p2601
(dp2602
sV#343:15
p2603
(dp2604
sV#340:442
p2605
(dp2606
sV#368:184
p2607
(dp2608
V#325:2
p2609
(dp2610
V0
p2611
(dp2612
Vclass
p2613
VSendsTo
p2614
ssssV#322:251
p2615
(dp2616
sV#368:180
p2617
(dp2618
V#327:2
p2619
(dp2620
V0
p2621
(dp2622
Vclass
p2623
VSendsTo
p2624
ssssV#350:55
p2625
(dp2626
V#340:16
p2627
(dp2628
V0
p2629
(dp2630
Vclass
p2631
VSendsTo
p2632
ssssV#335:412
p2633
(dp2634
sV#334:510
p2635
(dp2636
sV#334:214
p2637
(dp2638
sV#359:119
p2639
(dp2640
V#340:11
p2641
(dp2642
V0
p2643
(dp2644
Vclass
p2645
VSendsTo
p2646
ssssV#356:86
p2647
(dp2648
V#335:17
p2649
(dp2650
V0
p2651
(dp2652
Vclass
p2653
VSendsTo
p2654
ssssV#344:10
p2655
(dp2656
V#349:135
p2657
(dp2658
V0
p2659
(dp2660
Vclass
p2661
VSendsTo
p2662
sssV#352:356
p2663
(dp2664
V0
p2665
(dp2666
Vclass
p2667
VSendsTo
p2668
ssssV#362:299
p2669
(dp2670
V#340:11
p2671
(dp2672
V0
p2673
(dp2674
Vclass
p2675
VSendsTo
p2676
ssssV#330:524
p2677
(dp2678
sV#358:347
p2679
(dp2680
V#337:8
p2681
(dp2682
V0
p2683
(dp2684
Vclass
p2685
VSendsTo
p2686
ssssV#342:495
p2687
(dp2688
sV#357:207
p2689
(dp2690
V#342:9
p2691
(dp2692
V0
p2693
(dp2694
Vclass
p2695
VSendsTo
p2696
ssssV#328:11
p2697
(dp2698
V#368:56
p2699
(dp2700
V0
p2701
(dp2702
Vclass
p2703
VSendsTo
p2704
sssV#361:179
p2705
(dp2706
V0
p2707
(dp2708
Vclass
p2709
VSendsTo
p2710
sssV#357:207
p2711
(dp2712
V0
p2713
(dp2714
Vclass
p2715
VSendsTo
p2716
sssV#364:228
p2717
(dp2718
V0
p2719
(dp2720
Vclass
p2721
VSendsTo
p2722
ssssV#341:13
p2723
(dp2724
V#354:51
p2725
(dp2726
V0
p2727
(dp2728
Vclass
p2729
VSendsTo
p2730
sssV#357:78
p2731
(dp2732
V0
p2733
(dp2734
Vclass
p2735
VSendsTo
p2736
sssV#357:400
p2737
(dp2738
V0
p2739
(dp2740
Vclass
p2741
VSendsTo
p2742
ssssV#341:12
p2743
(dp2744
sV#331:226
p2745
(dp2746
sV#322:234
p2747
(dp2748
sV#358:227
p2749
(dp2750
V#324:18
p2751
(dp2752
V0
p2753
(dp2754
Vclass
p2755
VSendsTo
p2756
ssssV#335:391
p2757
(dp2758
sV#345:237
p2759
(dp2760
V#322:18
p2761
(dp2762
V0
p2763
(dp2764
Vclass
p2765
VSendsTo
p2766
ssssV#332:2
p2767
(dp2768
V#354:11
p2769
(dp2770
V0
p2771
(dp2772
Vclass
p2773
VSendsTo
p2774
sssV#356:383
p2775
(dp2776
V0
p2777
(dp2778
Vclass
p2779
VSendsTo
p2780
ssssV#344:528
p2781
(dp2782
sV#337:568
p2783
(dp2784
sV#347:172
p2785
(dp2786
V#342:7
p2787
(dp2788
V0
p2789
(dp2790
Vclass
p2791
VSendsTo
p2792
ssssV#365:97
p2793
(dp2794
V#340:6
p2795
(dp2796
V0
p2797
(dp2798
Vclass
p2799
VSendsTo
p2800
ssssV#322:296
p2801
(dp2802
sV#326:423
p2803
(dp2804
sV#342:239
p2805
(dp2806
sV#328:546
p2807
(dp2808
sV#345:331
p2809
(dp2810
V#340:6
p2811
(dp2812
V0
p2813
(dp2814
Vclass
p2815
VSendsTo
p2816
ssssV#363:72
p2817
(dp2818
V#344:10
p2819
(dp2820
V0
p2821
(dp2822
Vclass
p2823
VSendsTo
p2824
ssssV#323:17
p2825
(dp2826
sV#344:585
p2827
(dp2828
sV#352:356
p2829
(dp2830
V#342:9
p2831
(dp2832
V0
p2833
(dp2834
Vclass
p2835
VSendsTo
p2836
ssssV#328:16
p2837
(dp2838
sV#334:443
p2839
(dp2840
sV#360:226
p2841
(dp2842
V#339:2
p2843
(dp2844
V0
p2845
(dp2846
Vclass
p2847
VSendsTo
p2848
ssssV#323:256
p2849
(dp2850
sV#344:11
p2851
(dp2852
V#368:217
p2853
(dp2854
V0
p2855
(dp2856
Vclass
p2857
VSendsTo
p2858
sssV#357:52
p2859
(dp2860
V0
p2861
(dp2862
Vclass
p2863
VSendsTo
p2864
sssV#356:86
p2865
(dp2866
V0
p2867
(dp2868
Vclass
p2869
VSendsTo
p2870
ssssV#328:338
p2871
(dp2872
sV#358:116
p2873
(dp2874
V#340:6
p2875
(dp2876
V0
p2877
(dp2878
Vclass
p2879
VSendsTo
p2880
ssssV#358:113
p2881
(dp2882
V#338:1
p2883
(dp2884
V0
p2885
(dp2886
Vclass
p2887
VSendsTo
p2888
ssssV#368:56
p2889
(dp2890
V#325:14
p2891
(dp2892
V0
p2893
(dp2894
Vclass
p2895
VSendsTo
p2896
ssssV#349:237
p2897
(dp2898
V#336:10
p2899
(dp2900
V0
p2901
(dp2902
Vclass
p2903
VSendsTo
p2904
ssssV#328:15
p2905
(dp2906
sV#344:572
p2907
(dp2908
sV#361:343
p2909
(dp2910
V#335:3
p2911
(dp2912
V0
p2913
(dp2914
Vclass
p2915
VSendsTo
p2916
ssssV#361:208
p2917
(dp2918
V#328:11
p2919
(dp2920
V0
p2921
(dp2922
Vclass
p2923
VSendsTo
p2924
ssssV#351:215
p2925
(dp2926
V#337:9
p2927
(dp2928
V0
p2929
(dp2930
Vclass
p2931
VSendsTo
p2932
ssssV#323:428
p2933
(dp2934
sV#351:110
p2935
(dp2936
V#336:10
p2937
(dp2938
V0
p2939
(dp2940
Vclass
p2941
VSendsTo
p2942
ssssV#351:291
p2943
(dp2944
V#332:17
p2945
(dp2946
V0
p2947
(dp2948
Vclass
p2949
VSendsTo
p2950
ssssV#329:524
p2951
(dp2952
sV#368:217
p2953
(dp2954
V#324:0
p2955
(dp2956
V0
p2957
(dp2958
Vclass
p2959
VSendsTo
p2960
ssssV#323:11
p2961
(dp2962
V#361:208
p2963
(dp2964
V0
p2965
(dp2966
Vclass
p2967
VSendsTo
p2968
sssV#368:201
p2969
(dp2970
V0
p2971
(dp2972
Vclass
p2973
VSendsTo
p2974
sssV#350:72
p2975
(dp2976
V0
p2977
(dp2978
Vclass
p2979
VSendsTo
p2980
ssssV#348:209
p2981
(dp2982
V#335:3
p2983
(dp2984
V0
p2985
(dp2986
Vclass
p2987
VSendsTo
p2988
ssssV#357:400
p2989
(dp2990
V#331:14
p2991
(dp2992
V0
p2993
(dp2994
Vclass
p2995
VSendsTo
p2996
ssssV#338:363
p2997
(dp2998
sV#341:232
p2999
(dp3000
sV#324:220
p3001
(dp3002
sV#354:73
p3003
(dp3004
V#329:18
p3005
(dp3006
V0
p3007
(dp3008
Vclass
p3009
VSendsTo
p3010
ssssV#364:294
p3011
(dp3012
V#336:6
p3013
(dp3014
V0
p3015
(dp3016
Vclass
p3017
VSendsTo
p3018
ssssV#326:387
p3019
(dp3020
sV#324:509
p3021
(dp3022
sV#355:171
p3023
(dp3024
V#336:6
p3025
(dp3026
V0
p3027
(dp3028
Vclass
p3029
VSendsTo
p3030
ssssV#367:315
p3031
(dp3032
V#342:9
p3033
(dp3034
V0
p3035
(dp3036
Vclass
p3037
VSendsTo
p3038
ssssV#367:78
p3039
(dp3040
V#340:6
p3041
(dp3042
V0
p3043
(dp3044
Vclass
p3045
VSendsTo
p3046
ssssV#326:219
p3047
(dp3048
sV#330:313
p3049
(dp3050
sV#340:344
p3051
(dp3052
sV#365:373
p3053
(dp3054
V#334:1
p3055
(dp3056
V0
p3057
(dp3058
Vclass
p3059
VSendsTo
p3060
ssssV#345:83
p3061
(dp3062
V#335:3
p3063
(dp3064
V0
p3065
(dp3066
Vclass
p3067
VSendsTo
p3068
ssssV#352:254
p3069
(dp3070
V#337:9
p3071
(dp3072
V0
p3073
(dp3074
Vclass
p3075
VSendsTo
p3076
ssssV#333:392
p3077
(dp3078
sV#361:36
p3079
(dp3080
V#337:9
p3081
(dp3082
V0
p3083
(dp3084
Vclass
p3085
VSendsTo
p3086
ssssV#338:465
p3087
(dp3088
sV#337:388
p3089
(dp3090
sV#331:14
p3091
(dp3092
sV#340:16
p3093
(dp3094
V#362:359
p3095
(dp3096
V0
p3097
(dp3098
Vclass
p3099
VSendsTo
p3100
sssV#357:331
p3101
(dp3102
V0
p3103
(dp3104
Vclass
p3105
VSendsTo
p3106
ssssV#322:509
p3107
(dp3108
sV#325:412
p3109
(dp3110
sV#350:211
p3111
(dp3112
V#337:8
p3113
(dp3114
V0
p3115
(dp3116
Vclass
p3117
VSendsTo
p3118
ssssV#336:10
p3119
(dp3120
V#367:78
p3121
(dp3122
V0
p3123
(dp3124
Vclass
p3125
VSendsTo
p3126
sssV#351:102
p3127
(dp3128
V0
p3129
(dp3130
Vclass
p3131
VSendsTo
p3132
ssssV#333:312
p3133
(dp3134
sV#351:102
p3135
(dp3136
V#329:6
p3137
(dp3138
V0
p3139
(dp3140
Vclass
p3141
VSendsTo
p3142
ssssV#331:515
p3143
(dp3144
sV#331:261
p3145
(dp3146
sV#322:569
p3147
(dp3148
sV#334:4
p3149
(dp3150
V#352:264
p3151
(dp3152
V0
p3153
(dp3154
Vclass
p3155
VSendsTo
p3156
sssV#353:160
p3157
(dp3158
V0
p3159
(dp3160
Vclass
p3161
VSendsTo
p3162
sssV#365:266
p3163
(dp3164
V0
p3165
(dp3166
Vclass
p3167
VSendsTo
p3168
ssssV#339:2
p3169
(dp3170
V#348:200
p3171
(dp3172
V0
p3173
(dp3174
Vclass
p3175
VSendsTo
p3176
sssV#356:247
p3177
(dp3178
V0
p3179
(dp3180
Vclass
p3181
VSendsTo
p3182
sssV#354:319
p3183
(dp3184
V0
p3185
(dp3186
Vclass
p3187
VSendsTo
p3188
ssssV#350:94
p3189
(dp3190
V#344:10
p3191
(dp3192
V0
p3193
(dp3194
Vclass
p3195
VSendsTo
p3196
ssssV#353:103
p3197
(dp3198
V#331:17
p3199
(dp3200
V0
p3201
(dp3202
Vclass
p3203
VSendsTo
p3204
ssssV#355:317
p3205
(dp3206
V#330:9
p3207
(dp3208
V0
p3209
(dp3210
Vclass
p3211
VSendsTo
p3212
ssssV#354:64
p3213
(dp3214
V#335:3
p3215
(dp3216
V0
p3217
(dp3218
Vclass
p3219
VSendsTo
p3220
ssssV#349:387
p3221
(dp3222
V#324:15
p3223
(dp3224
V0
p3225
(dp3226
Vclass
p3227
VSendsTo
p3228
ssssV#361:233
p3229
(dp3230
V#337:9
p3231
(dp3232
V0
p3233
(dp3234
Vclass
p3235
VSendsTo
p3236
ssssV#344:260
p3237
(dp3238
sV#322:3
p3239
(dp3240
V#358:227
p3241
(dp3242
V0
p3243
(dp3244
Vclass
p3245
VSendsTo
p3246
ssssV#356:25
p3247
(dp3248
V#327:2
p3249
(dp3250
V0
p3251
(dp3252
Vclass
p3253
VSendsTo
p3254
ssssV#346:23
p3255
(dp3256
V#335:2
p3257
(dp3258
V0
p3259
(dp3260
Vclass
p3261
VSendsTo
p3262
ssssV#337:345
p3263
(dp3264
sV#345:152
p3265
(dp3266
V#337:7
p3267
(dp3268
V0
p3269
(dp3270
Vclass
p3271
VSendsTo
p3272
ssssV#367:89
p3273
(dp3274
V#328:6
p3275
(dp3276
V0
p3277
(dp3278
Vclass
p3279
VSendsTo
p3280
ssssV#347:308
p3281
(dp3282
V#342:9
p3283
(dp3284
V0
p3285
(dp3286
Vclass
p3287
VSendsTo
p3288
ssssV#333:515
p3289
(dp3290
sV#332:225
p3291
(dp3292
sV#324:500
p3293
(dp3294
sV#360:5
p3295
(dp3296
V#324:3
p3297
(dp3298
V0
p3299
(dp3300
Vclass
p3301
VSendsTo
p3302
ssssV#355:11
p3303
(dp3304
V#326:16
p3305
(dp3306
V0
p3307
(dp3308
Vclass
p3309
VSendsTo
p3310
ssssV#329:241
p3311
(dp3312
sV#328:6
p3313
(dp3314
V#361:233
p3315
(dp3316
V0
p3317
(dp3318
Vclass
p3319
VSendsTo
p3320
ssssV#357:52
p3321
(dp3322
V#324:14
p3323
(dp3324
V0
p3325
(dp3326
Vclass
p3327
VSendsTo
p3328
ssssV#342:7
p3329
(dp3330
V#358:347
p3331
(dp3332
V0
p3333
(dp3334
Vclass
p3335
VSendsTo
p3336
ssssV#345:382
p3337
(dp3338
V#342:9
p3339
(dp3340
V0
p3341
(dp3342
Vclass
p3343
VSendsTo
p3344
ssssV#331:214
p3345
(dp3346
sV#368:32
p3347
(dp3348
V#334:4
p3349
(dp3350
V0
p3351
(dp3352
Vclass
p3353
VSendsTo
p3354
ssssV#337:7
p3355
(dp3356
V#345:382
p3357
(dp3358
V0
p3359
(dp3360
Vclass
p3361
VSendsTo
p3362
sssV#356:25
p3363
(dp3364
V0
p3365
(dp3366
Vclass
p3367
VSendsTo
p3368
ssssV#347:263
p3369
(dp3370
V#330:9
p3371
(dp3372
V0
p3373
(dp3374
Vclass
p3375
VSendsTo
p3376
ssssV#356:34
p3377
(dp3378
V#322:3
p3379
(dp3380
V0
p3381
(dp3382
Vclass
p3383
VSendsTo
p3384
ssssV#349:135
p3385
(dp3386
V#326:9
p3387
(dp3388
V0
p3389
(dp3390
Vclass
p3391
VSendsTo
p3392
ssssV#333:338
p3393
(dp3394
sV#357:170
p3395
(dp3396
V#323:4
p3397
(dp3398
V0
p3399
(dp3400
Vclass
p3401
VSendsTo
p3402
ssssV#365:282
p3403
(dp3404
V#335:5
p3405
(dp3406
V0
p3407
(dp3408
Vclass
p3409
VSendsTo
p3410
ssssV#360:82
p3411
(dp3412
V#327:2
p3413
(dp3414
V0
p3415
(dp3416
Vclass
p3417
VSendsTo
p3418
ssssV#327:486
p3419
(dp3420
sV#337:233
p3421
(dp3422
sV#351:155
p3423
(dp3424
V#335:5
p3425
(dp3426
V0
p3427
(dp3428
Vclass
p3429
VSendsTo
p3430
ssssV#331:403
p3431
(dp3432
sV#354:177
p3433
(dp3434
V#328:11
p3435
(dp3436
V0
p3437
(dp3438
Vclass
p3439
VSendsTo
p3440
ssssV#354:176
p3441
(dp3442
V#338:1
p3443
(dp3444
V0
p3445
(dp3446
Vclass
p3447
VSendsTo
p3448
ssssV#360:192
p3449
(dp3450
V#324:0
p3451
(dp3452
V0
p3453
(dp3454
Vclass
p3455
VSendsTo
p3456
ssssV#326:9
p3457
(dp3458
V#363:72
p3459
(dp3460
V0
p3461
(dp3462
Vclass
p3463
VSendsTo
p3464
ssssV#364:56
p3465
(dp3466
V#334:1
p3467
(dp3468
V0
p3469
(dp3470
Vclass
p3471
VSendsTo
p3472
ssssV#324:18
p3473
(dp3474
V#348:50
p3475
(dp3476
V0
p3477
(dp3478
Vclass
p3479
VSendsTo
p3480
sssV#356:34
p3481
(dp3482
V0
p3483
(dp3484
Vclass
p3485
VSendsTo
p3486
ssssV#345:164
p3487
(dp3488
V#328:6
p3489
(dp3490
V0
p3491
(dp3492
Vclass
p3493
VSendsTo
p3494
ssssV#325:487
p3495
(dp3496
sV#335:402
p3497
(dp3498
sV#340:2
p3499
(dp3500
V#360:167
p3501
(dp3502
V0
p3503
(dp3504
Vclass
p3505
VSendsTo
p3506
ssssV#321:289
p3507
(dp3508
sV#353:367
p3509
(dp3510
V#342:9
p3511
(dp3512
V0
p3513
(dp3514
Vclass
p3515
VSendsTo
p3516
ssssV#327:338
p3517
(dp3518
sV#324:0
p3519
(dp3520
V#362:252
p3521
(dp3522
V0
p3523
(dp3524
Vclass
p3525
VSendsTo
p3526
sssV#355:44
p3527
(dp3528
V0
p3529
(dp3530
Vclass
p3531
VSendsTo
p3532
sssV#354:64
p3533
(dp3534
V0
p3535
(dp3536
Vclass
p3537
VSendsTo
p3538
sssV#366:308
p3539
(dp3540
V0
p3541
(dp3542
Vclass
p3543
VSendsTo
p3544
sssV#361:36
p3545
(dp3546
V0
p3547
(dp3548
Vclass
p3549
VSendsTo
p3550
sssV#356:290
p3551
(dp3552
V0
p3553
(dp3554
Vclass
p3555
VSendsTo
p3556
ssssV#340:405
p3557
(dp3558
sV#359:228
p3559
(dp3560
V#335:2
p3561
(dp3562
V0
p3563
(dp3564
Vclass
p3565
VSendsTo
p3566
ssssV#324:3
p3567
(dp3568
sV#337:338
p3569
(dp3570
sV#331:420
p3571
(dp3572
sV#332:214
p3573
(dp3574
sV#326:500
p3575
(dp3576
sV#360:311
p3577
(dp3578
V#337:0
p3579
(dp3580
V0
p3581
(dp3582
Vclass
p3583
VSendsTo
p3584
ssssV#322:18
p3585
(dp3586
V#355:171
p3587
(dp3588
V0
p3589
(dp3590
Vclass
p3591
VSendsTo
p3592
ssssV#321:502
p3593
(dp3594
sV#335:515
p3595
(dp3596
sV#366:140
p3597
(dp3598
V#326:16
p3599
(dp3600
V0
p3601
(dp3602
Vclass
p3603
VSendsTo
p3604
ssssV#336:206
p3605
(dp3606
sV#356:383
p3607
(dp3608
V#326:16
p3609
(dp3610
V0
p3611
(dp3612
Vclass
p3613
VSendsTo
p3614
ssssV#357:390
p3615
(dp3616
V#330:9
p3617
(dp3618
V0
p3619
(dp3620
Vclass
p3621
VSendsTo
p3622
ssssV#366:389
p3623
(dp3624
V#337:9
p3625
(dp3626
V0
p3627
(dp3628
Vclass
p3629
VSendsTo
p3630
ssssV#339:17
p3631
(dp3632
sV#356:290
p3633
(dp3634
V#323:11
p3635
(dp3636
V0
p3637
(dp3638
Vclass
p3639
VSendsTo
p3640
ssssV#326:16
p3641
(dp3642
V#350:348
p3643
(dp3644
V0
p3645
(dp3646
Vclass
p3647
VSendsTo
p3648
sssV#350:55
p3649
(dp3650
V0
p3651
(dp3652
Vclass
p3653
VSendsTo
p3654
sssV#354:262
p3655
(dp3656
V0
p3657
(dp3658
Vclass
p3659
VSendsTo
p3660
sssV#364:247
p3661
(dp3662
V0
p3663
(dp3664
Vclass
p3665
VSendsTo
p3666
sssV#353:310
p3667
(dp3668
V0
p3669
(dp3670
Vclass
p3671
VSendsTo
p3672
sssV#351:291
p3673
(dp3674
V0
p3675
(dp3676
Vclass
p3677
VSendsTo
p3678
ssssV#342:207
p3679
(dp3680
sV#331:373
p3681
(dp3682
sV#364:134
p3683
(dp3684
V#337:8
p3685
(dp3686
V0
p3687
(dp3688
Vclass
p3689
VSendsTo
p3690
ssssV#332:12
p3691
(dp3692
sV#364:228
p3693
(dp3694
V#323:11
p3695
(dp3696
V0
p3697
(dp3698
Vclass
p3699
VSendsTo
p3700
ssssV#335:2
p3701
(dp3702
V#348:209
p3703
(dp3704
V0
p3705
(dp3706
Vclass
p3707
VSendsTo
p3708
sssV#351:155
p3709
(dp3710
V0
p3711
(dp3712
Vclass
p3713
VSendsTo
p3714
sssV#361:131
p3715
(dp3716
V0
p3717
(dp3718
Vclass
p3719
VSendsTo
p3720
ssssV#335:3
p3721
(dp3722
V#368:180
p3723
(dp3724
V0
p3725
(dp3726
Vclass
p3727
VSendsTo
p3728
sssV#349:387
p3729
(dp3730
V0
p3731
(dp3732
Vclass
p3733
VSendsTo
p3734
sssV#365:282
p3735
(dp3736
V0
p3737
(dp3738
Vclass
p3739
VSendsTo
p3740
sssV#346:23
p3741
(dp3742
V0
p3743
(dp3744
Vclass
p3745
VSendsTo
p3746
sssV#368:223
p3747
(dp3748
V0
p3749
(dp3750
Vclass
p3751
VSendsTo
p3752
sssV#358:314
p3753
(dp3754
V0
p3755
(dp3756
Vclass
p3757
VSendsTo
p3758
ssssV#362:331
p3759
(dp3760
V#324:0
p3761
(dp3762
V0
p3763
(dp3764
Vclass
p3765
VSendsTo
p3766
ssssV#363:73
p3767
(dp3768
V#330:1
p3769
(dp3770
V0
p3771
(dp3772
Vclass
p3773
VSendsTo
p3774
ssssV#335:5
p3775
(dp3776
V#359:228
p3777
(dp3778
V0
p3779
(dp3780
Vclass
p3781
VSendsTo
p3782
ssssV#324:316
p3783
(dp3784
sV#325:509
p3785
(dp3786
sV#357:331
p3787
(dp3788
V#326:16
p3789
(dp3790
V0
p3791
(dp3792
Vclass
p3793
VSendsTo
p3794
ssssV#337:8
p3795
(dp3796
V#345:210
p3797
(dp3798
V0
p3799
(dp3800
Vclass
p3801
VSendsTo
p3802
sssV#367:89
p3803
(dp3804
V0
p3805
(dp3806
Vclass
p3807
VSendsTo
p3808
sssV#358:116
p3809
(dp3810
V0
p3811
(dp3812
Vclass
p3813
VSendsTo
p3814
sssV#362:130
p3815
(dp3816
V0
p3817
(dp3818
Vclass
p3819
VSendsTo
p3820
sssV#347:172
p3821
(dp3822
V0
p3823
(dp3824
Vclass
p3825
VSendsTo
p3826
ssssV#337:9
p3827
(dp3828
V#362:331
p3829
(dp3830
V0
p3831
(dp3832
Vclass
p3833
VSendsTo
p3834
sssV#360:226
p3835
(dp3836
V0
p3837
(dp3838
Vclass
p3839
VSendsTo
p3840
sssV#364:56
p3841
(dp3842
V0
p3843
(dp3844
Vclass
p3845
VSendsTo
p3846
sssV#345:164
p3847
(dp3848
V0
p3849
(dp3850
Vclass
p3851
VSendsTo
p3852
sssV#350:211
p3853
(dp3854
V0
p3855
(dp3856
Vclass
p3857
VSendsTo
p3858
sssV#345:111
p3859
(dp3860
V0
p3861
(dp3862
Vclass
p3863
VSendsTo
p3864
ssssV#321:500
p3865
(dp3866
sV#353:160
p3867
(dp3868
V#337:8
p3869
(dp3870
V0
p3871
(dp3872
Vclass
p3873
VSendsTo
p3874
ssssV#353:310
p3875
(dp3876
V#334:11
p3877
(dp3878
V0
p3879
(dp3880
Vclass
p3881
VSendsTo
p3882
ssssV#365:392
p3883
(dp3884
V#329:6
p3885
(dp3886
V0
p3887
(dp3888
Vclass
p3889
VSendsTo
p3890
ssssV#333:3
p3891
(dp3892
sV#337:0
p3893
(dp3894
sV#352:264
p3895
(dp3896
V#335:12
p3897
(dp3898
V0
p3899
(dp3900
Vclass
p3901
VSendsTo
p3902
ssssV#324:14
p3903
(dp3904
V#359:38
p3905
(dp3906
V0
p3907
(dp3908
Vclass
p3909
VSendsTo
p3910
sssV#347:327
p3911
(dp3912
V0
p3913
(dp3914
Vclass
p3915
VSendsTo
p3916
sssV#345:83
p3917
(dp3918
V0
p3919
(dp3920
Vclass
p3921
VSendsTo
p3922
sssV#361:260
p3923
(dp3924
V0
p3925
(dp3926
Vclass
p3927
VSendsTo
p3928
ssssV#339:568
p3929
(dp3930
sV#333:8
p3931
(dp3932
sV#333:9
p3933
(dp3934
V#366:140
p3935
(dp3936
V0
p3937
(dp3938
Vclass
p3939
VSendsTo
p3940
ssssV#365:266
p3941
(dp3942
V#334:4
p3943
(dp3944
V0
p3945
(dp3946
Vclass
p3947
VSendsTo
p3948
ssssV#365:50
p3949
(dp3950
V#330:1
p3951
(dp3952
V0
p3953
(dp3954
Vclass
p3955
VSendsTo
p3956
ssssV#321:509
p3957
(dp3958
sV#332:336
p3959
(dp3960
sV#355:44
p3961
(dp3962
V#330:1
p3963
(dp3964
V0
p3965
(dp3966
Vclass
p3967
VSendsTo
p3968
ssssV#356:122
p3969
(dp3970
V#335:11
p3971
(dp3972
V0
p3973
(dp3974
Vclass
p3975
VSendsTo
p3976
ssssV#355:344
p3977
(dp3978
V#338:2
p3979
(dp3980
V0
p3981
(dp3982
Vclass
p3983
VSendsTo
p3984
ssssV#362:252
p3985
(dp3986
V#335:17
p3987
(dp3988
V0
p3989
(dp3990
Vclass
p3991
VSendsTo
p3992
ssssV#366:374
p3993
(dp3994
V#342:9
p3995
(dp3996
V0
p3997
(dp3998
Vclass
p3999
VSendsTo
p4000
ssssV#361:294
p4001
(dp4002
V#325:2
p4003
(dp4004
V0
p4005
(dp4006
Vclass
p4007
VSendsTo
p4008
ssssV#335:467
p4009
(dp4010
sV#323:500
p4011
(dp4012
sV#354:51
p4013
(dp4014
V#330:9
p4015
(dp4016
V0
p4017
(dp4018
Vclass
p4019
VSendsTo
p4020
ssssV#342:9
p4021
(dp4022
V#350:94
p4023
(dp4024
V0
p4025
(dp4026
Vclass
p4027
VSendsTo
p4028
sssV#358:113
p4029
(dp4030
V0
p4031
(dp4032
Vclass
p4033
VSendsTo
p4034
sssV#348:122
p4035
(dp4036
V0
p4037
(dp4038
Vclass
p4039
VSendsTo
p4040
sssV#361:294
p4041
(dp4042
V0
p4043
(dp4044
Vclass
p4045
VSendsTo
p4046
sssV#345:152
p4047
(dp4048
V0
p4049
(dp4050
Vclass
p4051
VSendsTo
p4052
sssV#353:367
p4053
(dp4054
V0
p4055
(dp4056
Vclass
p4057
VSendsTo
p4058
ssssV#347:327
p4059
(dp4060
V#324:14
p4061
(dp4062
V0
p4063
(dp4064
Vclass
p4065
VSendsTo
p4066
ssssV#336:415
p4067
(dp4068
sV#329:500
p4069
(dp4070
sV#330:515
p4071
(dp4072
sV#366:308
p4073
(dp4074
V#324:14
p4075
(dp4076
V0
p4077
(dp4078
Vclass
p4079
VSendsTo
p4080
ssssV#358:314
p4081
(dp4082
V#340:6
p4083
(dp4084
V0
p4085
(dp4086
Vclass
p4087
VSendsTo
p4088
ssssV#335:17
p4089
(dp4090
V#360:192
p4091
(dp4092
V0
p4093
(dp4094
Vclass
p4095
VSendsTo
p4096
sssV#361:343
p4097
(dp4098
V0
p4099
(dp4100
Vclass
p4101
VSendsTo
p4102
ssssV#348:200
p4103
(dp4104
V#324:18
p4105
(dp4106
V0
p4107
(dp4108
Vclass
p4109
VSendsTo
p4110
ssssV#354:11
p4111
(dp4112
V#330:9
p4113
(dp4114
V0
p4115
(dp4116
Vclass
p4117
VSendsTo
p4118
ssssV#350:348
p4119
(dp4120
V#325:17
p4121
(dp4122
V0
p4123
(dp4124
Vclass
p4125
VSendsTo
p4126
ssssV#368:289
p4127
(dp4128
V#324:0
p4129
(dp4130
V0
p4131
(dp4132
Vclass
p4133
VSendsTo
p4134
ssssV#325:500
p4135
(dp4136
sV#321:235
p4137
(dp4138
sV#325:331
p4139
(dp4140
sV#350:345
p4141
(dp4142
V#335:3
p4143
(dp4144
V0
p4145
(dp4146
Vclass
p4147
VSendsTo
p4148
ssssV#327:509
p4149
(dp4150
sV#362:311
p4151
(dp4152
V#335:3
p4153
(dp4154
V0
p4155
(dp4156
Vclass
p4157
VSendsTo
p4158
ssssV#344:508
p4159
(dp4160
sV#359:38
p4161
(dp4162
V#344:11
p4163
(dp4164
V0
p4165
(dp4166
Vclass
p4167
VSendsTo
p4168
ssssV#335:365
p4169
(dp4170
sV#332:17
p4171
(dp4172
V#357:390
p4173
(dp4174
V0
p4175
(dp4176
Vclass
p4177
VSendsTo
p4178
ssssV#350:72
p4179
(dp4180
V#324:0
p4181
(dp4182
V0
p4183
(dp4184
Vclass
p4185
VSendsTo
p4186
ssssV#330:214
p4187
(dp4188
sV#356:247
p4189
(dp4190
V#322:2
p4191
(dp4192
V0
p4193
(dp4194
Vclass
p4195
VSendsTo
p4196
ssssV#344:469
p4197
(dp4198
sV#325:2
p4199
(dp4200
V#354:176
p4201
(dp4202
V0
p4203
(dp4204
Vclass
p4205
VSendsTo
p4206
sssV#357:121
p4207
(dp4208
V0
p4209
(dp4210
Vclass
p4211
VSendsTo
p4212
sssV#358:65
p4213
(dp4214
V0
p4215
(dp4216
Vclass
p4217
VSendsTo
p4218
ssssV#340:6
p4219
(dp4220
V#364:134
p4221
(dp4222
V0
p4223
(dp4224
Vclass
p4225
VSendsTo
p4226
sssV#351:110
p4227
(dp4228
V0
p4229
(dp4230
Vclass
p4231
VSendsTo
p4232
sssV#362:311
p4233
(dp4234
V0
p4235
(dp4236
Vclass
p4237
VSendsTo
p4238
sssV#353:103
p4239
(dp4240
V0
p4241
(dp4242
Vclass
p4243
VSendsTo
p4244
sssV#365:392
p4245
(dp4246
V0
p4247
(dp4248
Vclass
p4249
VSendsTo
p4250
ssssV#332:588
p4251
(dp4252
sV#362:130
p4253
(dp4254
V#337:9
p4255
(dp4256
V0
p4257
(dp4258
Vclass
p4259
VSendsTo
p4260
ssssV#368:201
p4261
(dp4262
V#337:0
p4263
(dp4264
V0
p4265
(dp4266
Vclass
p4267
VSendsTo
p4268
ssssV#329:214
p4269
(dp4270
sV#339:256
p4271
(dp4272
sV#324:13
p4273
(dp4274
V#355:317
p4275
(dp4276
V0
p4277
(dp4278
Vclass
p4279
VSendsTo
p4280
ssssV#330:465
p4281
(dp4282
sV#329:6
p4283
(dp4284
V#365:97
p4285
(dp4286
V0
p4287
(dp4288
Vclass
p4289
VSendsTo
p4290
sssV#349:237
p4291
(dp4292
V0
p4293
(dp4294
Vclass
p4295
VSendsTo
p4296
ssssV#333:356
p4297
(dp4298
sV#321:4
p4299
(dp4300
V#359:119
p4301
(dp4302
V0
p4303
(dp4304
Vclass
p4305
VSendsTo
p4306
ssssV#354:319
p4307
(dp4308
V#337:9
p4309
(dp4310
V0
p4311
(dp4312
Vclass
p4313
VSendsTo
p4314
ssssV#324:15
p4315
(dp4316
V#350:345
p4317
(dp4318
V0
p4319
(dp4320
Vclass
p4321
VSendsTo
p4322
ssssV#338:2
p4323
(dp4324
V#365:373
p4325
(dp4326
V0
p4327
(dp4328
Vclass
p4329
VSendsTo
p4330
sssV#366:389
p4331
(dp4332
V0
p4333
(dp4334
Vclass
p4335
VSendsTo
p4336
ssssV#338:1
p4337
(dp4338
V#368:184
p4339
(dp4340
V0
p4341
(dp4342
Vclass
p4343
VSendsTo
p4344
sssV#366:374
p4345
(dp4346
V0
p4347
(dp4348
Vclass
p4349
VSendsTo
p4350
ssssV#338:0
p4351
(dp4352
sV#358:120
p4353
(dp4354
V#336:6
p4355
(dp4356
V0
p4357
(dp4358
Vclass
p4359
VSendsTo
p4360
ssssV#358:47
p4361
(dp4362
V#321:4
p4363
(dp4364
V0
p4365
(dp4366
Vclass
p4367
VSendsTo
p4368
ssssV#360:167
p4369
(dp4370
V#326:16
p4371
(dp4372
V0
p4373
(dp4374
Vclass
p4375
VSendsTo
p4376
ssssV#354:262
p4377
(dp4378
V#332:2
p4379
(dp4380
V0
p4381
(dp4382
Vclass
p4383
VSendsTo
p4384
ssssV#329:515
p4385
(dp4386
sV#335:11
p4387
(dp4388
V#367:239
p4389
(dp4390
V0
p4391
(dp4392
Vclass
p4393
VSendsTo
p4394
sssV#360:82
p4395
(dp4396
V0
p4397
(dp4398
Vclass
p4399
VSendsTo
p4400
ssssV#335:12
p4401
(dp4402
V#368:32
p4403
(dp4404
V0
p4405
(dp4406
Vclass
p4407
VSendsTo
p4408
ssssV#323:282
p4409
(dp4410
sV#323:257
p4411
(dp4412
sV#340:609
p4413
(dp4414
sV#323:4
p4415
(dp4416
V#367:315
p4417
(dp4418
V0
p4419
(dp4420
Vclass
p4421
VSendsTo
p4422
sssss.