(dp0
Vnodes
p1
(dp2
VC3-E
p3
(dp4
Vuname
p5
VC3-E
p6
sVname
p7
VC3
p8
sVclass
p9
VNeuron
p10
ssVC3-D
p11
(dp12
Vuname
p13
VC3-D
p14
sVname
p15
VC3
p16
sVclass
p17
VNeuron
p18
ssVC3-F
p19
(dp20
Vuname
p21
VC3-F
p22
sVname
p23
VC3
p24
sVclass
p25
VNeuron
p26
ssVC3-A
p27
(dp28
Vuname
p29
VC3-A
p30
sVname
p31
VC3
p32
sVclass
p33
VNeuron
p34
ssVC3-C
p35
(dp36
Vuname
p37
VC3-C
p38
sVname
p39
VC3
p40
sVclass
p41
VNeuron
p42
ssVL5-Q
p43
(dp44
Vuname
p45
VL5-Q
p46
sVname
p47
VL5
p48
sVclass
p49
VNeuron
p50
ssVL5-L
p51
(dp52
Vuname
p53
VL5-L
p54
sVname
p55
VL5
p56
sVclass
p57
VNeuron
p58
ssVL5-J
p59
(dp60
Vuname
p61
VL5-J
p62
sVname
p63
VL5
p64
sVclass
p65
VNeuron
p66
ssVMi1-P
p67
(dp68
Vuname
p69
VMi1-P
p70
sVname
p71
VMi1
p72
sVclass
p73
VNeuron
p74
ssVC2-home
p75
(dp76
Vjanelia_id
p77
V10961
p78
sVuname
p79
VC2-home
p80
sVname
p81
VC2
p82
sVclass
p83
VNeuron
p84
ssVL5-F
p85
(dp86
Vuname
p87
VL5-F
p88
sVname
p89
VL5
p90
sVclass
p91
VNeuron
p92
ssVLawf2-1
p93
(dp94
Vuname
p95
VLawf2-1
p96
sVname
p97
VLawf2_1
p98
sVclass
p99
VNeuron
p100
ssVL5-D
p101
(dp102
Vuname
p103
VL5-D
p104
sVname
p105
VL5
p106
sVclass
p107
VNeuron
p108
ssVL5-E
p109
(dp110
Vuname
p111
VL5-E
p112
sVname
p113
VL5
p114
sVclass
p115
VNeuron
p116
ssVC3-Q
p117
(dp118
Vuname
p119
VC3-Q
p120
sVname
p121
VC3
p122
sVclass
p123
VNeuron
p124
ssVL5-C
p125
(dp126
Vuname
p127
VL5-C
p128
sVname
p129
VL5
p130
sVclass
p131
VNeuron
p132
ssVL5-A
p133
(dp134
Vuname
p135
VL5-A
p136
sVname
p137
VL5
p138
sVclass
p139
VNeuron
p140
ssVMi1-Q
p141
(dp142
Vuname
p143
VMi1-Q
p144
sVname
p145
VMi1
p146
sVclass
p147
VNeuron
p148
ssVTm3p-P
p149
(dp150
Vjanelia_id
p151
V22034
p152
sVuname
p153
VTm3p-P
p154
sVname
p155
VTm3p
p156
sVclass
p157
VNeuron
p158
ssVTm3a-home
p159
(dp160
Vjanelia_id
p161
V33067
p162
sVuname
p163
VTm3a-home
p164
sVname
p165
VTm3a
p166
sVclass
p167
VNeuron
p168
ssVL5-B
p169
(dp170
Vuname
p171
VL5-B
p172
sVname
p173
VL5
p174
sVclass
p175
VNeuron
p176
ssVL1-E
p177
(dp178
Vuname
p179
VL1-E
p180
sVname
p181
VL1
p182
sVclass
p183
VNeuron
p184
ssVC3-P
p185
(dp186
Vuname
p187
VC3-P
p188
sVname
p189
VC3
p190
sVclass
p191
VNeuron
p192
ssVL5-home
p193
(dp194
Vjanelia_id
p195
V10358
p196
sVuname
p197
VL5-home
p198
sVname
p199
VL5
p200
sVclass
p201
VNeuron
p202
ssVMi4-Q
p203
(dp204
Vjanelia_id
p205
V4993
p206
sVuname
p207
VMi4-Q
p208
sVname
p209
VMi4
p210
sVclass
p211
VNeuron
p212
ssVMi1-C
p213
(dp214
Vuname
p215
VMi1-C
p216
sVname
p217
VMi1
p218
sVclass
p219
VNeuron
p220
ssVTm3p-B
p221
(dp222
Vjanelia_id
p223
V8502
p224
sVuname
p225
VTm3p-B
p226
sVname
p227
VTm3p
p228
sVclass
p229
VNeuron
p230
ssVMi1-E
p231
(dp232
Vuname
p233
VMi1-E
p234
sVname
p235
VMi1
p236
sVclass
p237
VNeuron
p238
ssVTm3p-D
p239
(dp240
Vjanelia_id
p241
V20789
p242
sVuname
p243
VTm3p-D
p244
sVname
p245
VTm3p
p246
sVclass
p247
VNeuron
p248
ssVMi1-F
p249
(dp250
Vuname
p251
VMi1-F
p252
sVname
p253
VMi1
p254
sVclass
p255
VNeuron
p256
ssVMi1-A
p257
(dp258
Vuname
p259
VMi1-A
p260
sVname
p261
VMi1
p262
sVclass
p263
VNeuron
p264
ssVC3-home
p265
(dp266
Vjanelia_id
p267
V10655
p268
sVuname
p269
VC3-home
p270
sVname
p271
VC3
p272
sVclass
p273
VNeuron
p274
ssVMi1-B
p275
(dp276
Vuname
p277
VMi1-B
p278
sVname
p279
VMi1
p280
sVclass
p281
VNeuron
p282
ssVTm3p-N
p283
(dp284
Vjanelia_id
p285
V32073
p286
sVuname
p287
VTm3p-N
p288
sVname
p289
VTm3p
p290
sVclass
p291
VNeuron
p292
ssVC2-Q
p293
(dp294
Vuname
p295
VC2-Q
p296
sVname
p297
VC2
p298
sVclass
p299
VNeuron
p300
ssVTm3p-E
p301
(dp302
Vjanelia_id
p303
V31699
p304
sVuname
p305
VTm3p-E
p306
sVname
p307
VTm3p
p308
sVclass
p309
VNeuron
p310
ssVL1-home
p311
(dp312
Vjanelia_id
p313
V10319
p314
sVuname
p315
VL1-home
p316
sVname
p317
VL1
p318
sVclass
p319
VNeuron
p320
ssVDm4-0
p321
(dp322
Vuname
p323
VDm4-0
p324
sVname
p325
VDm4_0
p326
sVclass
p327
VNeuron
p328
ssVTm3p-A
p329
(dp330
Vjanelia_id
p331
V906
p332
sVuname
p333
VTm3p-A
p334
sVname
p335
VTm3p
p336
sVclass
p337
VNeuron
p338
ssVT2-A
p339
(dp340
Vuname
p341
VT2-A
p342
sVname
p343
VT2
p344
sVclass
p345
VNeuron
p346
ssVC2-A
p347
(dp348
Vuname
p349
VC2-A
p350
sVname
p351
VC2
p352
sVclass
p353
VNeuron
p354
ssVC2-B
p355
(dp356
Vuname
p357
VC2-B
p358
sVname
p359
VC2
p360
sVclass
p361
VNeuron
p362
ssVC2-C
p363
(dp364
Vuname
p365
VC2-C
p366
sVname
p367
VC2
p368
sVclass
p369
VNeuron
p370
ssVC2-D
p371
(dp372
Vuname
p373
VC2-D
p374
sVname
p375
VC2
p376
sVclass
p377
VNeuron
p378
ssVC2-E
p379
(dp380
Vuname
p381
VC2-E
p382
sVname
p383
VC2
p384
sVclass
p385
VNeuron
p386
ssVC2-F
p387
(dp388
Vuname
p389
VC2-F
p390
sVname
p391
VC2
p392
sVclass
p393
VNeuron
p394
ssVMi1-home
p395
(dp396
Vjanelia_id
p397
V30465
p398
sVuname
p399
VMi1-home
p400
sVname
p401
VMi1
p402
sVclass
p403
VNeuron
p404
ssVL5-P
p405
(dp406
Vuname
p407
VL5-P
p408
sVname
p409
VL5
p410
sVclass
p411
VNeuron
p412
ssVC3-B
p413
(dp414
Vuname
p415
VC3-B
p416
sVname
p417
VC3
p418
sVclass
p419
VNeuron
p420
ssVR7-P
p421
(dp422
Vuname
p423
VR7-P
p424
sVname
p425
VR7
p426
sVclass
p427
VNeuron
p428
ssVL1-R
p429
(dp430
Vuname
p431
VL1-R
p432
sVname
p433
VL1
p434
sVclass
p435
VNeuron
p436
ssVL1-P
p437
(dp438
Vuname
p439
VL1-P
p440
sVname
p441
VL1
p442
sVclass
p443
VNeuron
p444
ssVL1-Q
p445
(dp446
Vuname
p447
VL1-Q
p448
sVname
p449
VL1
p450
sVclass
p451
VNeuron
p452
ssVTm3a-I
p453
(dp454
Vjanelia_id
p455
V7084
p456
sVuname
p457
VTm3a-I
p458
sVname
p459
VTm3a
p460
sVclass
p461
VNeuron
p462
ssVTm3p-home
p463
(dp464
Vuname
p465
VTm3p-home
p466
sVname
p467
VTm3p
p468
sVclass
p469
VNeuron
p470
ssVTm3a-K
p471
(dp472
Vjanelia_id
p473
V238819
p474
sVuname
p475
VTm3a-K
p476
sVname
p477
VTm3a
p478
sVclass
p479
VNeuron
p480
ssVTm3a-D
p481
(dp482
Vjanelia_id
p483
V582841
p484
sVuname
p485
VTm3a-D
p486
sVname
p487
VTm3a
p488
sVclass
p489
VNeuron
p490
ssVTm3a-E
p491
(dp492
Vjanelia_id
p493
V15730
p494
sVuname
p495
VTm3a-E
p496
sVname
p497
VTm3a
p498
sVclass
p499
VNeuron
p500
ssVMi1-D
p501
(dp502
Vuname
p503
VMi1-D
p504
sVname
p505
VMi1
p506
sVclass
p507
VNeuron
p508
ssVTm3a-B
p509
(dp510
Vjanelia_id
p511
V13019
p512
sVuname
p513
VTm3a-B
p514
sVname
p515
VTm3a
p516
sVclass
p517
VNeuron
p518
ssVTm3a-C
p519
(dp520
Vjanelia_id
p521
V18631
p522
sVuname
p523
VTm3a-C
p524
sVname
p525
VTm3a
p526
sVclass
p527
VNeuron
p528
ssVL1-B
p529
(dp530
Vuname
p531
VL1-B
p532
sVname
p533
VL1
p534
sVclass
p535
VNeuron
p536
ssVL1-C
p537
(dp538
Vuname
p539
VL1-C
p540
sVname
p541
VL1
p542
sVclass
p543
VNeuron
p544
ssVL1-A
p545
(dp546
Vuname
p547
VL1-A
p548
sVname
p549
VL1
p550
sVclass
p551
VNeuron
p552
ssVL1-F
p553
(dp554
Vuname
p555
VL1-F
p556
sVname
p557
VL1
p558
sVclass
p559
VNeuron
p560
ssVL1-D
p561
(dp562
Vuname
p563
VL1-D
p564
sVname
p565
VL1
p566
sVclass
p567
VNeuron
p568
ssVTm3a-A
p569
(dp570
Vjanelia_id
p571
V13015
p572
sVuname
p573
VTm3a-A
p574
sVname
p575
VTm3a
p576
sVclass
p577
VNeuron
p578
ssVL1-J
p579
(dp580
Vuname
p581
VL1-J
p582
sVname
p583
VL1
p584
sVclass
p585
VNeuron
p586
ssVL1-K
p587
(dp588
Vuname
p589
VL1-K
p590
sVname
p591
VL1
p592
sVclass
p593
VNeuron
p594
ssVL1-L
p595
(dp596
Vuname
p597
VL1-L
p598
sVname
p599
VL1
p600
sVclass
p601
VNeuron
p602
sssVedges
p603
(dp604
VL1-K
p605
(dp606
VTm3a-K
p607
(dp608
Vsynapses
p609
I2
sVinferred
p610
I0
sssVC3-E
p611
(dp612
VL5-E
p613
(dp614
Vsynapses
p615
I11
sVinferred
p616
I0
ssVMi1-E
p617
(dp618
Vsynapses
p619
I2
sVinferred
p620
I0
ssVTm3a-home
p621
(dp622
Vsynapses
p623
I1
sVinferred
p624
I0
sssVC3-D
p625
(dp626
VL5-D
p627
(dp628
Vsynapses
p629
I10
sVinferred
p630
I0
ssVMi1-D
p631
(dp632
Vsynapses
p633
I1
sVinferred
p634
I0
ssVTm3p-D
p635
(dp636
Vsynapses
p637
I1
sVinferred
p638
I0
sssVC3-F
p639
(dp640
VL5-F
p641
(dp642
Vsynapses
p643
I13
sVinferred
p644
I0
ssVTm3a-home
p645
(dp646
Vsynapses
p647
I1
sVinferred
p648
I0
ssVMi1-F
p649
(dp650
Vsynapses
p651
I7
sVinferred
p652
I0
sssVC3-A
p653
(dp654
VL5-A
p655
(dp656
Vsynapses
p657
I18
sVinferred
p658
I0
sssVC3-C
p659
(dp660
VMi1-C
p661
(dp662
Vsynapses
p663
I1
sVinferred
p664
I0
ssVL5-C
p665
(dp666
Vsynapses
p667
I15
sVinferred
p668
I0
ssVTm3a-K
p669
(dp670
Vsynapses
p671
I1
sVinferred
p672
I0
sssVL5-Q
p673
(dp674
VMi1-Q
p675
(dp676
Vsynapses
p677
I22
sVinferred
p678
I0
ssVTm3p-P
p679
(dp680
Vsynapses
p681
I3
sVinferred
p682
I0
ssVL1-Q
p683
(dp684
Vsynapses
p685
I15
sVinferred
p686
I0
ssVMi4-Q
p687
(dp688
Vsynapses
p689
I10
sVinferred
p690
I0
ssVC2-B
p691
(dp692
Vsynapses
p693
I1
sVinferred
p694
I0
ssVC2-F
p695
(dp696
Vsynapses
p697
I9
sVinferred
p698
I0
ssVL5-F
p699
(dp700
Vsynapses
p701
I2
sVinferred
p702
I0
ssVC3-Q
p703
(dp704
Vsynapses
p705
I8
sVinferred
p706
I0
sssVL5-L
p707
(dp708
VTm3a-K
p709
(dp710
Vsynapses
p711
I10
sVinferred
p712
I0
ssVC3-D
p713
(dp714
Vsynapses
p715
I2
sVinferred
p716
I0
ssVC2-E
p717
(dp718
Vsynapses
p719
I2
sVinferred
p720
I0
ssVTm3a-C
p721
(dp722
Vsynapses
p723
I1
sVinferred
p724
I0
ssVMi1-C
p725
(dp726
Vsynapses
p727
I5
sVinferred
p728
I0
ssVC2-C
p729
(dp730
Vsynapses
p731
I4
sVinferred
p732
I0
ssVC2-D
p733
(dp734
Vsynapses
p735
I1
sVinferred
p736
I0
ssVMi1-D
p737
(dp738
Vsynapses
p739
I2
sVinferred
p740
I0
ssVL5-C
p741
(dp742
Vsynapses
p743
I1
sVinferred
p744
I0
ssVL1-L
p745
(dp746
Vsynapses
p747
I9
sVinferred
p748
I0
ssVTm3p-D
p749
(dp750
Vsynapses
p751
I4
sVinferred
p752
I0
sssVL5-home
p753
(dp754
VC3-E
p755
(dp756
Vsynapses
p757
I2
sVinferred
p758
I0
ssVC3-C
p759
(dp760
Vsynapses
p761
I1
sVinferred
p762
I0
ssVTm3a-home
p763
(dp764
Vsynapses
p765
I8
sVinferred
p766
I0
ssVC2-home
p767
(dp768
Vsynapses
p769
I12
sVinferred
p770
I0
ssVL5-F
p771
(dp772
Vsynapses
p773
I1
sVinferred
p774
I0
ssVL5-D
p775
(dp776
Vsynapses
p777
I1
sVinferred
p778
I0
ssVTm3p-home
p779
(dp780
Vsynapses
p781
I19
sVinferred
p782
I0
ssVMi1-B
p783
(dp784
Vsynapses
p785
I1
sVinferred
p786
I0
ssVTm3p-B
p787
(dp788
Vsynapses
p789
I2
sVinferred
p790
I0
ssVL1-home
p791
(dp792
Vsynapses
p793
I28
sVinferred
p794
I0
ssVTm3p-D
p795
(dp796
Vsynapses
p797
I2
sVinferred
p798
I0
ssVMi1-F
p799
(dp800
Vsynapses
p801
I3
sVinferred
p802
I0
ssVC3-home
p803
(dp804
Vsynapses
p805
I11
sVinferred
p806
I0
ssVTm3p-E
p807
(dp808
Vsynapses
p809
I5
sVinferred
p810
I0
ssVC2-B
p811
(dp812
Vsynapses
p813
I3
sVinferred
p814
I0
ssVC2-C
p815
(dp816
Vsynapses
p817
I12
sVinferred
p818
I0
ssVC2-D
p819
(dp820
Vsynapses
p821
I3
sVinferred
p822
I0
ssVC2-E
p823
(dp824
Vsynapses
p825
I5
sVinferred
p826
I0
ssVMi1-home
p827
(dp828
Vsynapses
p829
I47
sVinferred
p830
I0
ssVTm3a-A
p831
(dp832
Vsynapses
p833
I6
sVinferred
p834
I0
ssVTm3a-B
p835
(dp836
Vsynapses
p837
I24
sVinferred
p838
I0
ssVTm3a-C
p839
(dp840
Vsynapses
p841
I17
sVinferred
p842
I0
ssVL1-B
p843
(dp844
Vsynapses
p845
I1
sVinferred
p846
I0
sssVL5-J
p847
(dp848
VC2-C
p849
(dp850
Vsynapses
p851
I4
sVinferred
p852
I0
ssVC3-B
p853
(dp854
Vsynapses
p855
I2
sVinferred
p856
I0
ssVMi1-C
p857
(dp858
Vsynapses
p859
I1
sVinferred
p860
I0
ssVTm3p-B
p861
(dp862
Vsynapses
p863
I2
sVinferred
p864
I0
ssVL1-J
p865
(dp866
Vsynapses
p867
I2
sVinferred
p868
I0
ssVL5-C
p869
(dp870
Vsynapses
p871
I1
sVinferred
p872
I0
sssVTm3a-home
p873
(dp874
VL1-R
p875
(dp876
Vsynapses
p877
I1
sVinferred
p878
I0
ssVTm3p-P
p879
(dp880
Vsynapses
p881
I5
sVinferred
p882
I0
ssVC3-E
p883
(dp884
Vsynapses
p885
I1
sVinferred
p886
I0
ssVTm3a-E
p887
(dp888
Vsynapses
p889
I2
sVinferred
p890
I0
ssVL1-home
p891
(dp892
Vsynapses
p893
I2
sVinferred
p894
I0
ssVTm3a-A
p895
(dp896
Vsynapses
p897
I4
sVinferred
p898
I0
ssVTm3a-B
p899
(dp900
Vsynapses
p901
I2
sVinferred
p902
I0
ssVTm3a-C
p903
(dp904
Vsynapses
p905
I2
sVinferred
p906
I0
ssVLawf2-1
p907
(dp908
Vsynapses
p909
I2
sVinferred
p910
I0
ssVL1-F
p911
(dp912
Vsynapses
p913
I7
sVinferred
p914
I0
ssVT2-A
p915
(dp916
Vsynapses
p917
I2
sVinferred
p918
I0
ssVL1-A
p919
(dp920
Vsynapses
p921
I1
sVinferred
p922
I0
ssVTm3p-E
p923
(dp924
Vsynapses
p925
I4
sVinferred
p926
I0
ssVTm3a-home
p927
(dp928
Vsynapses
p929
I3
sVinferred
p930
I0
ssVC2-F
p931
(dp932
Vsynapses
p933
I1
sVinferred
p934
I0
ssVMi1-F
p935
(dp936
Vsynapses
p937
I1
sVinferred
p938
I0
ssVMi1-E
p939
(dp940
Vsynapses
p941
I2
sVinferred
p942
I0
ssVL1-E
p943
(dp944
Vsynapses
p945
I3
sVinferred
p946
I0
ssVMi1-home
p947
(dp948
Vsynapses
p949
I2
sVinferred
p950
I0
sssVC2-home
p951
(dp952
VL5-home
p953
(dp954
Vsynapses
p955
I36
sVinferred
p956
I0
ssVC3-home
p957
(dp958
Vsynapses
p959
I4
sVinferred
p960
I0
ssVL1-home
p961
(dp962
Vsynapses
p963
I25
sVinferred
p964
I0
ssVMi1-home
p965
(dp966
Vsynapses
p967
I17
sVinferred
p968
I0
sssVL5-F
p969
(dp970
VC2-D
p971
(dp972
Vsynapses
p973
I3
sVinferred
p974
I0
ssVTm3p-P
p975
(dp976
Vsynapses
p977
I12
sVinferred
p978
I0
ssVC2-F
p979
(dp980
Vsynapses
p981
I8
sVinferred
p982
I0
ssVMi4-Q
p983
(dp984
Vsynapses
p985
I2
sVinferred
p986
I0
ssVC3-E
p987
(dp988
Vsynapses
p989
I2
sVinferred
p990
I0
ssVC3-F
p991
(dp992
Vsynapses
p993
I11
sVinferred
p994
I0
ssVTm3a-B
p995
(dp996
Vsynapses
p997
I8
sVinferred
p998
I0
ssVTm3a-A
p999
(dp1000
Vsynapses
p1001
I19
sVinferred
p1002
I0
ssVTm3a-home
p1003
(dp1004
Vsynapses
p1005
I18
sVinferred
p1006
I0
ssVL5-Q
p1007
(dp1008
Vsynapses
p1009
I1
sVinferred
p1010
I0
ssVL5-home
p1011
(dp1012
Vsynapses
p1013
I2
sVinferred
p1014
I0
ssVL1-F
p1015
(dp1016
Vsynapses
p1017
I37
sVinferred
p1018
I0
ssVC2-B
p1019
(dp1020
Vsynapses
p1021
I3
sVinferred
p1022
I0
ssVMi1-E
p1023
(dp1024
Vsynapses
p1025
I1
sVinferred
p1026
I0
ssVL5-P
p1027
(dp1028
Vsynapses
p1029
I2
sVinferred
p1030
I0
ssVC2-home
p1031
(dp1032
Vsynapses
p1033
I9
sVinferred
p1034
I0
ssVMi1-F
p1035
(dp1036
Vsynapses
p1037
I53
sVinferred
p1038
I0
ssVTm3p-E
p1039
(dp1040
Vsynapses
p1041
I7
sVinferred
p1042
I0
ssVMi1-home
p1043
(dp1044
Vsynapses
p1045
I1
sVinferred
p1046
I0
ssVC2-E
p1047
(dp1048
Vsynapses
p1049
I8
sVinferred
p1050
I0
sssVL5-D
p1051
(dp1052
VC2-D
p1053
(dp1054
Vsynapses
p1055
I12
sVinferred
p1056
I0
ssVTm3p-E
p1057
(dp1058
Vsynapses
p1059
I5
sVinferred
p1060
I0
ssVTm3a-K
p1061
(dp1062
Vsynapses
p1063
I1
sVinferred
p1064
I0
ssVTm3a-D
p1065
(dp1066
Vsynapses
p1067
I4
sVinferred
p1068
I0
ssVC3-D
p1069
(dp1070
Vsynapses
p1071
I15
sVinferred
p1072
I0
ssVL5-L
p1073
(dp1074
Vsynapses
p1075
I2
sVinferred
p1076
I0
ssVTm3a-home
p1077
(dp1078
Vsynapses
p1079
I1
sVinferred
p1080
I0
ssVTm3a-C
p1081
(dp1082
Vsynapses
p1083
I12
sVinferred
p1084
I0
ssVC3-E
p1085
(dp1086
Vsynapses
p1087
I1
sVinferred
p1088
I0
ssVMi1-C
p1089
(dp1090
Vsynapses
p1091
I1
sVinferred
p1092
I0
ssVC2-C
p1093
(dp1094
Vsynapses
p1095
I3
sVinferred
p1096
I0
ssVL1-home
p1097
(dp1098
Vsynapses
p1099
I1
sVinferred
p1100
I0
ssVMi1-D
p1101
(dp1102
Vsynapses
p1103
I51
sVinferred
p1104
I0
ssVL1-D
p1105
(dp1106
Vsynapses
p1107
I33
sVinferred
p1108
I0
ssVMi1-home
p1109
(dp1110
Vsynapses
p1111
I3
sVinferred
p1112
I0
ssVMi1-E
p1113
(dp1114
Vsynapses
p1115
I1
sVinferred
p1116
I0
ssVL5-E
p1117
(dp1118
Vsynapses
p1119
I1
sVinferred
p1120
I0
ssVC2-E
p1121
(dp1122
Vsynapses
p1123
I5
sVinferred
p1124
I0
ssVTm3p-D
p1125
(dp1126
Vsynapses
p1127
I11
sVinferred
p1128
I0
sssVL5-E
p1129
(dp1130
VC2-D
p1131
(dp1132
Vsynapses
p1133
I3
sVinferred
p1134
I0
ssVTm3p-P
p1135
(dp1136
Vsynapses
p1137
I9
sVinferred
p1138
I0
ssVTm3a-D
p1139
(dp1140
Vsynapses
p1141
I12
sVinferred
p1142
I0
ssVMi1-home
p1143
(dp1144
Vsynapses
p1145
I4
sVinferred
p1146
I0
ssVL5-P
p1147
(dp1148
Vsynapses
p1149
I3
sVinferred
p1150
I0
ssVTm3a-C
p1151
(dp1152
Vsynapses
p1153
I6
sVinferred
p1154
I0
ssVC3-E
p1155
(dp1156
Vsynapses
p1157
I11
sVinferred
p1158
I0
ssVC2-C
p1159
(dp1160
Vsynapses
p1161
I6
sVinferred
p1162
I0
ssVTm3p-E
p1163
(dp1164
Vsynapses
p1165
I19
sVinferred
p1166
I0
ssVTm3a-home
p1167
(dp1168
Vsynapses
p1169
I16
sVinferred
p1170
I0
ssVC2-home
p1171
(dp1172
Vsynapses
p1173
I3
sVinferred
p1174
I0
ssVL1-E
p1175
(dp1176
Vsynapses
p1177
I33
sVinferred
p1178
I0
ssVMi1-E
p1179
(dp1180
Vsynapses
p1181
I45
sVinferred
p1182
I0
ssVL5-D
p1183
(dp1184
Vsynapses
p1185
I3
sVinferred
p1186
I0
ssVC2-E
p1187
(dp1188
Vsynapses
p1189
I15
sVinferred
p1190
I0
sssVC3-Q
p1191
(dp1192
VL5-Q
p1193
(dp1194
Vsynapses
p1195
I4
sVinferred
p1196
I0
sssVTm3p-home
p1197
(dp1198
VL1-B
p1199
(dp1200
Vsynapses
p1201
I3
sVinferred
p1202
I0
ssVTm3a-K
p1203
(dp1204
Vsynapses
p1205
I3
sVinferred
p1206
I0
ssVTm3a-A
p1207
(dp1208
Vsynapses
p1209
I1
sVinferred
p1210
I0
ssVC3-C
p1211
(dp1212
Vsynapses
p1213
I2
sVinferred
p1214
I0
ssVTm3a-C
p1215
(dp1216
Vsynapses
p1217
I1
sVinferred
p1218
I0
ssVTm3p-A
p1219
(dp1220
Vsynapses
p1221
I1
sVinferred
p1222
I0
ssVL1-C
p1223
(dp1224
Vsynapses
p1225
I7
sVinferred
p1226
I0
ssVMi1-C
p1227
(dp1228
Vsynapses
p1229
I6
sVinferred
p1230
I0
ssVTm3p-B
p1231
(dp1232
Vsynapses
p1233
I5
sVinferred
p1234
I0
ssVL1-home
p1235
(dp1236
Vsynapses
p1237
I4
sVinferred
p1238
I0
ssVTm3a-B
p1239
(dp1240
Vsynapses
p1241
I1
sVinferred
p1242
I0
ssVMi1-home
p1243
(dp1244
Vsynapses
p1245
I1
sVinferred
p1246
I0
ssVMi1-B
p1247
(dp1248
Vsynapses
p1249
I3
sVinferred
p1250
I0
ssVTm3p-D
p1251
(dp1252
Vsynapses
p1253
I1
sVinferred
p1254
I0
sssVL5-A
p1255
(dp1256
VTm3p-A
p1257
(dp1258
Vsynapses
p1259
I3
sVinferred
p1260
I0
ssVC2-C
p1261
(dp1262
Vsynapses
p1263
I3
sVinferred
p1264
I0
ssVC2-home
p1265
(dp1266
Vsynapses
p1267
I2
sVinferred
p1268
I0
ssVC3-A
p1269
(dp1270
Vsynapses
p1271
I4
sVinferred
p1272
I0
ssVTm3a-A
p1273
(dp1274
Vsynapses
p1275
I6
sVinferred
p1276
I0
ssVTm3a-B
p1277
(dp1278
Vsynapses
p1279
I13
sVinferred
p1280
I0
ssVTm3a-C
p1281
(dp1282
Vsynapses
p1283
I1
sVinferred
p1284
I0
ssVMi1-A
p1285
(dp1286
Vsynapses
p1287
I24
sVinferred
p1288
I0
ssVC2-A
p1289
(dp1290
Vsynapses
p1291
I5
sVinferred
p1292
I0
ssVC2-B
p1293
(dp1294
Vsynapses
p1295
I7
sVinferred
p1296
I0
ssVL5-home
p1297
(dp1298
Vsynapses
p1299
I2
sVinferred
p1300
I0
ssVTm3a-home
p1301
(dp1302
Vsynapses
p1303
I1
sVinferred
p1304
I0
ssVC2-F
p1305
(dp1306
Vsynapses
p1307
I3
sVinferred
p1308
I0
ssVC3-home
p1309
(dp1310
Vsynapses
p1311
I1
sVinferred
p1312
I0
ssVL1-A
p1313
(dp1314
Vsynapses
p1315
I17
sVinferred
p1316
I0
sssVMi1-Q
p1317
(dp1318
VMi1-Q
p1319
(dp1320
Vsynapses
p1321
I1
sVinferred
p1322
I0
ssVC2-Q
p1323
(dp1324
Vsynapses
p1325
I4
sVinferred
p1326
I0
ssVL1-Q
p1327
(dp1328
Vsynapses
p1329
I9
sVinferred
p1330
I0
ssVC2-home
p1331
(dp1332
Vsynapses
p1333
I6
sVinferred
p1334
I0
ssVTm3p-P
p1335
(dp1336
Vsynapses
p1337
I3
sVinferred
p1338
I0
ssVL5-Q
p1339
(dp1340
Vsynapses
p1341
I4
sVinferred
p1342
I0
ssVMi4-Q
p1343
(dp1344
Vsynapses
p1345
I8
sVinferred
p1346
I0
ssVC2-F
p1347
(dp1348
Vsynapses
p1349
I9
sVinferred
p1350
I0
ssVC3-Q
p1351
(dp1352
Vsynapses
p1353
I1
sVinferred
p1354
I0
sssVTm3p-P
p1355
(dp1356
VL1-P
p1357
(dp1358
Vsynapses
p1359
I5
sVinferred
p1360
I0
ssVC2-home
p1361
(dp1362
Vsynapses
p1363
I1
sVinferred
p1364
I0
ssVTm3a-D
p1365
(dp1366
Vsynapses
p1367
I2
sVinferred
p1368
I0
ssVTm3a-E
p1369
(dp1370
Vsynapses
p1371
I1
sVinferred
p1372
I0
ssVMi1-F
p1373
(dp1374
Vsynapses
p1375
I1
sVinferred
p1376
I0
ssVTm3a-A
p1377
(dp1378
Vsynapses
p1379
I1
sVinferred
p1380
I0
ssVTm3a-home
p1381
(dp1382
Vsynapses
p1383
I3
sVinferred
p1384
I0
ssVLawf2-1
p1385
(dp1386
Vsynapses
p1387
I1
sVinferred
p1388
I0
ssVL1-F
p1389
(dp1390
Vsynapses
p1391
I5
sVinferred
p1392
I0
ssVC2-F
p1393
(dp1394
Vsynapses
p1395
I1
sVinferred
p1396
I0
ssVL1-E
p1397
(dp1398
Vsynapses
p1399
I1
sVinferred
p1400
I0
ssVMi1-E
p1401
(dp1402
Vsynapses
p1403
I1
sVinferred
p1404
I0
ssVC3-P
p1405
(dp1406
Vsynapses
p1407
I1
sVinferred
p1408
I0
sssVL5-B
p1409
(dp1410
VTm3p-A
p1411
(dp1412
Vsynapses
p1413
I8
sVinferred
p1414
I0
ssVTm3a-I
p1415
(dp1416
Vsynapses
p1417
I1
sVinferred
p1418
I0
ssVTm3a-K
p1419
(dp1420
Vsynapses
p1421
I1
sVinferred
p1422
I0
ssVTm3p-B
p1423
(dp1424
Vsynapses
p1425
I18
sVinferred
p1426
I0
ssVMi1-C
p1427
(dp1428
Vsynapses
p1429
I2
sVinferred
p1430
I0
ssVTm3a-B
p1431
(dp1432
Vsynapses
p1433
I9
sVinferred
p1434
I0
ssVC3-B
p1435
(dp1436
Vsynapses
p1437
I7
sVinferred
p1438
I0
ssVL1-B
p1439
(dp1440
Vsynapses
p1441
I36
sVinferred
p1442
I0
ssVMi1-B
p1443
(dp1444
Vsynapses
p1445
I46
sVinferred
p1446
I0
ssVC2-B
p1447
(dp1448
Vsynapses
p1449
I15
sVinferred
p1450
I0
ssVC2-C
p1451
(dp1452
Vsynapses
p1453
I9
sVinferred
p1454
I0
ssVC2-E
p1455
(dp1456
Vsynapses
p1457
I2
sVinferred
p1458
I0
ssVC2-home
p1459
(dp1460
Vsynapses
p1461
I1
sVinferred
p1462
I0
ssVMi1-home
p1463
(dp1464
Vsynapses
p1465
I6
sVinferred
p1466
I0
ssVC3-home
p1467
(dp1468
Vsynapses
p1469
I2
sVinferred
p1470
I0
ssVTm3a-C
p1471
(dp1472
Vsynapses
p1473
I2
sVinferred
p1474
I0
ssVL5-C
p1475
(dp1476
Vsynapses
p1477
I1
sVinferred
p1478
I0
ssVTm3p-home
p1479
(dp1480
Vsynapses
p1481
I10
sVinferred
p1482
I0
sssVL1-E
p1483
(dp1484
VTm3p-P
p1485
(dp1486
Vsynapses
p1487
I11
sVinferred
p1488
I0
ssVTm3a-D
p1489
(dp1490
Vsynapses
p1491
I24
sVinferred
p1492
I0
ssVTm3p-N
p1493
(dp1494
Vsynapses
p1495
I4
sVinferred
p1496
I0
ssVTm3a-home
p1497
(dp1498
Vsynapses
p1499
I22
sVinferred
p1500
I0
ssVTm3a-C
p1501
(dp1502
Vsynapses
p1503
I4
sVinferred
p1504
I0
ssVC3-E
p1505
(dp1506
Vsynapses
p1507
I80
sVinferred
p1508
I0
ssVTm3p-E
p1509
(dp1510
Vsynapses
p1511
I29
sVinferred
p1512
I0
ssVTm3p-D
p1513
(dp1514
Vsynapses
p1515
I2
sVinferred
p1516
I0
ssVMi1-home
p1517
(dp1518
Vsynapses
p1519
I1
sVinferred
p1520
I0
ssVMi1-E
p1521
(dp1522
Vsynapses
p1523
I154
sVinferred
p1524
I0
ssVL5-E
p1525
(dp1526
Vsynapses
p1527
I117
sVinferred
p1528
I0
ssVC2-E
p1529
(dp1530
Vsynapses
p1531
I59
sVinferred
p1532
I0
sssVC3-P
p1533
(dp1534
VMi1-P
p1535
(dp1536
Vsynapses
p1537
I1
sVinferred
p1538
I0
ssVMi1-E
p1539
(dp1540
Vsynapses
p1541
I1
sVinferred
p1542
I0
ssVL5-P
p1543
(dp1544
Vsynapses
p1545
I1
sVinferred
p1546
I0
ssVC2-home
p1547
(dp1548
Vsynapses
p1549
I1
sVinferred
p1550
I0
sssVTm3p-A
p1551
(dp1552
VL1-B
p1553
(dp1554
Vsynapses
p1555
I1
sVinferred
p1556
I0
ssVTm3a-B
p1557
(dp1558
Vsynapses
p1559
I4
sVinferred
p1560
I0
ssVMi1-A
p1561
(dp1562
Vsynapses
p1563
I2
sVinferred
p1564
I0
ssVL1-A
p1565
(dp1566
Vsynapses
p1567
I3
sVinferred
p1568
I0
ssVTm3a-home
p1569
(dp1570
Vsynapses
p1571
I3
sVinferred
p1572
I0
ssVTm3p-home
p1573
(dp1574
Vsynapses
p1575
I1
sVinferred
p1576
I0
sssVMi4-Q
p1577
(dp1578
VMi1-Q
p1579
(dp1580
Vsynapses
p1581
I2
sVinferred
p1582
I0
sssVMi1-C
p1583
(dp1584
VTm3p-home
p1585
(dp1586
Vsynapses
p1587
I26
sVinferred
p1588
I0
ssVTm3a-K
p1589
(dp1590
Vsynapses
p1591
I16
sVinferred
p1592
I0
ssVTm3p-B
p1593
(dp1594
Vsynapses
p1595
I12
sVinferred
p1596
I0
ssVC2-B
p1597
(dp1598
Vsynapses
p1599
I1
sVinferred
p1600
I0
ssVC3-C
p1601
(dp1602
Vsynapses
p1603
I12
sVinferred
p1604
I0
ssVTm3a-C
p1605
(dp1606
Vsynapses
p1607
I11
sVinferred
p1608
I0
ssVL1-C
p1609
(dp1610
Vsynapses
p1611
I31
sVinferred
p1612
I0
ssVMi1-C
p1613
(dp1614
Vsynapses
p1615
I19
sVinferred
p1616
I0
ssVC2-C
p1617
(dp1618
Vsynapses
p1619
I7
sVinferred
p1620
I0
ssVC2-D
p1621
(dp1622
Vsynapses
p1623
I2
sVinferred
p1624
I0
ssVTm3p-D
p1625
(dp1626
Vsynapses
p1627
I15
sVinferred
p1628
I0
ssVL5-J
p1629
(dp1630
Vsynapses
p1631
I1
sVinferred
p1632
I0
ssVL5-C
p1633
(dp1634
Vsynapses
p1635
I12
sVinferred
p1636
I0
ssVC2-E
p1637
(dp1638
Vsynapses
p1639
I1
sVinferred
p1640
I0
sssVTm3p-B
p1641
(dp1642
VTm3a-I
p1643
(dp1644
Vsynapses
p1645
I2
sVinferred
p1646
I0
ssVTm3a-K
p1647
(dp1648
Vsynapses
p1649
I3
sVinferred
p1650
I0
ssVC2-B
p1651
(dp1652
Vsynapses
p1653
I1
sVinferred
p1654
I0
ssVTm3a-B
p1655
(dp1656
Vsynapses
p1657
I2
sVinferred
p1658
I0
ssVTm3a-C
p1659
(dp1660
Vsynapses
p1661
I2
sVinferred
p1662
I0
ssVL1-B
p1663
(dp1664
Vsynapses
p1665
I6
sVinferred
p1666
I0
ssVL1-C
p1667
(dp1668
Vsynapses
p1669
I4
sVinferred
p1670
I0
ssVMi1-C
p1671
(dp1672
Vsynapses
p1673
I3
sVinferred
p1674
I0
ssVMi1-B
p1675
(dp1676
Vsynapses
p1677
I5
sVinferred
p1678
I0
ssVC3-C
p1679
(dp1680
Vsynapses
p1681
I1
sVinferred
p1682
I0
ssVC3-B
p1683
(dp1684
Vsynapses
p1685
I1
sVinferred
p1686
I0
ssVL5-B
p1687
(dp1688
Vsynapses
p1689
I1
sVinferred
p1690
I0
ssVTm3p-home
p1691
(dp1692
Vsynapses
p1693
I3
sVinferred
p1694
I0
sssVMi1-E
p1695
(dp1696
VTm3p-P
p1697
(dp1698
Vsynapses
p1699
I11
sVinferred
p1700
I0
ssVTm3p-E
p1701
(dp1702
Vsynapses
p1703
I22
sVinferred
p1704
I0
ssVC3-E
p1705
(dp1706
Vsynapses
p1707
I13
sVinferred
p1708
I0
ssVTm3a-home
p1709
(dp1710
Vsynapses
p1711
I15
sVinferred
p1712
I0
ssVTm3a-C
p1713
(dp1714
Vsynapses
p1715
I13
sVinferred
p1716
I0
ssVTm3a-D
p1717
(dp1718
Vsynapses
p1719
I6
sVinferred
p1720
I0
ssVMi1-E
p1721
(dp1722
Vsynapses
p1723
I15
sVinferred
p1724
I0
ssVC2-E
p1725
(dp1726
Vsynapses
p1727
I8
sVinferred
p1728
I0
ssVC2-home
p1729
(dp1730
Vsynapses
p1731
I2
sVinferred
p1732
I0
ssVL1-E
p1733
(dp1734
Vsynapses
p1735
I23
sVinferred
p1736
I0
ssVC2-D
p1737
(dp1738
Vsynapses
p1739
I2
sVinferred
p1740
I0
ssVL5-E
p1741
(dp1742
Vsynapses
p1743
I8
sVinferred
p1744
I0
ssVTm3p-N
p1745
(dp1746
Vsynapses
p1747
I3
sVinferred
p1748
I0
sssVMi1-D
p1749
(dp1750
VTm3a-K
p1751
(dp1752
Vsynapses
p1753
I3
sVinferred
p1754
I0
ssVTm3a-D
p1755
(dp1756
Vsynapses
p1757
I1
sVinferred
p1758
I0
ssVC3-D
p1759
(dp1760
Vsynapses
p1761
I8
sVinferred
p1762
I0
ssVMi1-D
p1763
(dp1764
Vsynapses
p1765
I8
sVinferred
p1766
I0
ssVTm3a-home
p1767
(dp1768
Vsynapses
p1769
I5
sVinferred
p1770
I0
ssVTm3a-C
p1771
(dp1772
Vsynapses
p1773
I16
sVinferred
p1774
I0
ssVC2-C
p1775
(dp1776
Vsynapses
p1777
I3
sVinferred
p1778
I0
ssVTm3p-E
p1779
(dp1780
Vsynapses
p1781
I25
sVinferred
p1782
I0
ssVTm3p-D
p1783
(dp1784
Vsynapses
p1785
I18
sVinferred
p1786
I0
ssVL1-D
p1787
(dp1788
Vsynapses
p1789
I24
sVinferred
p1790
I0
ssVC2-D
p1791
(dp1792
Vsynapses
p1793
I6
sVinferred
p1794
I0
ssVL5-D
p1795
(dp1796
Vsynapses
p1797
I6
sVinferred
p1798
I0
ssVC2-E
p1799
(dp1800
Vsynapses
p1801
I6
sVinferred
p1802
I0
ssVTm3p-N
p1803
(dp1804
Vsynapses
p1805
I11
sVinferred
p1806
I0
sssVMi1-F
p1807
(dp1808
VTm3p-P
p1809
(dp1810
Vsynapses
p1811
I20
sVinferred
p1812
I0
ssVC2-home
p1813
(dp1814
Vsynapses
p1815
I4
sVinferred
p1816
I0
ssVTm3p-E
p1817
(dp1818
Vsynapses
p1819
I5
sVinferred
p1820
I0
ssVC3-F
p1821
(dp1822
Vsynapses
p1823
I11
sVinferred
p1824
I0
ssVTm3a-A
p1825
(dp1826
Vsynapses
p1827
I12
sVinferred
p1828
I0
ssVTm3a-B
p1829
(dp1830
Vsynapses
p1831
I4
sVinferred
p1832
I0
ssVT2-A
p1833
(dp1834
Vsynapses
p1835
I11
sVinferred
p1836
I0
ssVC2-A
p1837
(dp1838
Vsynapses
p1839
I7
sVinferred
p1840
I0
ssVC2-B
p1841
(dp1842
Vsynapses
p1843
I4
sVinferred
p1844
I0
ssVL5-home
p1845
(dp1846
Vsynapses
p1847
I3
sVinferred
p1848
I0
ssVC2-D
p1849
(dp1850
Vsynapses
p1851
I3
sVinferred
p1852
I0
ssVTm3a-home
p1853
(dp1854
Vsynapses
p1855
I23
sVinferred
p1856
I0
ssVC2-F
p1857
(dp1858
Vsynapses
p1859
I7
sVinferred
p1860
I0
ssVMi1-F
p1861
(dp1862
Vsynapses
p1863
I13
sVinferred
p1864
I0
ssVL5-F
p1865
(dp1866
Vsynapses
p1867
I7
sVinferred
p1868
I0
ssVL1-F
p1869
(dp1870
Vsynapses
p1871
I24
sVinferred
p1872
I0
ssVC2-E
p1873
(dp1874
Vsynapses
p1875
I1
sVinferred
p1876
I0
sssVMi1-home
p1877
(dp1878
VC2-D
p1879
(dp1880
Vsynapses
p1881
I1
sVinferred
p1882
I0
ssVTm3p-P
p1883
(dp1884
Vsynapses
p1885
I3
sVinferred
p1886
I0
ssVTm3a-I
p1887
(dp1888
Vsynapses
p1889
I3
sVinferred
p1890
I0
ssVTm3p-E
p1891
(dp1892
Vsynapses
p1893
I17
sVinferred
p1894
I0
ssVTm3p-B
p1895
(dp1896
Vsynapses
p1897
I1
sVinferred
p1898
I0
ssVTm3a-A
p1899
(dp1900
Vsynapses
p1901
I11
sVinferred
p1902
I0
ssVTm3a-B
p1903
(dp1904
Vsynapses
p1905
I17
sVinferred
p1906
I0
ssVTm3a-C
p1907
(dp1908
Vsynapses
p1909
I19
sVinferred
p1910
I0
ssVTm3p-A
p1911
(dp1912
Vsynapses
p1913
I1
sVinferred
p1914
I0
ssVC2-B
p1915
(dp1916
Vsynapses
p1917
I8
sVinferred
p1918
I0
ssVL5-home
p1919
(dp1920
Vsynapses
p1921
I8
sVinferred
p1922
I0
ssVL1-home
p1923
(dp1924
Vsynapses
p1925
I26
sVinferred
p1926
I0
ssVTm3a-home
p1927
(dp1928
Vsynapses
p1929
I12
sVinferred
p1930
I0
ssVC2-home
p1931
(dp1932
Vsynapses
p1933
I5
sVinferred
p1934
I0
ssVC3-home
p1935
(dp1936
Vsynapses
p1937
I16
sVinferred
p1938
I0
ssVMi1-home
p1939
(dp1940
Vsynapses
p1941
I6
sVinferred
p1942
I0
ssVL5-D
p1943
(dp1944
Vsynapses
p1945
I1
sVinferred
p1946
I0
ssVTm3p-home
p1947
(dp1948
Vsynapses
p1949
I11
sVinferred
p1950
I0
ssVC2-E
p1951
(dp1952
Vsynapses
p1953
I6
sVinferred
p1954
I0
ssVTm3p-D
p1955
(dp1956
Vsynapses
p1957
I3
sVinferred
p1958
I0
sssVMi1-B
p1959
(dp1960
VL1-B
p1961
(dp1962
Vsynapses
p1963
I33
sVinferred
p1964
I0
ssVTm3a-I
p1965
(dp1966
Vsynapses
p1967
I17
sVinferred
p1968
I0
ssVTm3a-K
p1969
(dp1970
Vsynapses
p1971
I4
sVinferred
p1972
I0
ssVTm3a-B
p1973
(dp1974
Vsynapses
p1975
I13
sVinferred
p1976
I0
ssVC3-B
p1977
(dp1978
Vsynapses
p1979
I18
sVinferred
p1980
I0
ssVTm3p-A
p1981
(dp1982
Vsynapses
p1983
I6
sVinferred
p1984
I0
ssVMi1-B
p1985
(dp1986
Vsynapses
p1987
I9
sVinferred
p1988
I0
ssVC2-B
p1989
(dp1990
Vsynapses
p1991
I6
sVinferred
p1992
I0
ssVTm3p-B
p1993
(dp1994
Vsynapses
p1995
I13
sVinferred
p1996
I0
ssVC2-D
p1997
(dp1998
Vsynapses
p1999
I5
sVinferred
p2000
I0
ssVC2-E
p2001
(dp2002
Vsynapses
p2003
I1
sVinferred
p2004
I0
ssVC2-home
p2005
(dp2006
Vsynapses
p2007
I6
sVinferred
p2008
I0
ssVMi1-home
p2009
(dp2010
Vsynapses
p2011
I2
sVinferred
p2012
I0
ssVTm3a-C
p2013
(dp2014
Vsynapses
p2015
I12
sVinferred
p2016
I0
ssVL5-B
p2017
(dp2018
Vsynapses
p2019
I8
sVinferred
p2020
I0
ssVTm3p-home
p2021
(dp2022
Vsynapses
p2023
I25
sVinferred
p2024
I0
sssVTm3p-N
p2025
(dp2026
VTm3a-D
p2027
(dp2028
Vsynapses
p2029
I1
sVinferred
p2030
I0
ssVTm3p-E
p2031
(dp2032
Vsynapses
p2033
I1
sVinferred
p2034
I0
ssVTm3p-D
p2035
(dp2036
Vsynapses
p2037
I1
sVinferred
p2038
I0
ssVMi1-D
p2039
(dp2040
Vsynapses
p2041
I1
sVinferred
p2042
I0
ssVL1-E
p2043
(dp2044
Vsynapses
p2045
I2
sVinferred
p2046
I0
sssVC2-Q
p2047
(dp2048
VMi1-Q
p2049
(dp2050
Vsynapses
p2051
I5
sVinferred
p2052
I0
ssVL1-Q
p2053
(dp2054
Vsynapses
p2055
I12
sVinferred
p2056
I0
ssVL5-Q
p2057
(dp2058
Vsynapses
p2059
I9
sVinferred
p2060
I0
sssVMi1-P
p2061
(dp2062
VMi1-P
p2063
(dp2064
Vsynapses
p2065
I1
sVinferred
p2066
I0
ssVL1-P
p2067
(dp2068
Vsynapses
p2069
I6
sVinferred
p2070
I0
ssVTm3p-P
p2071
(dp2072
Vsynapses
p2073
I7
sVinferred
p2074
I0
ssVTm3a-D
p2075
(dp2076
Vsynapses
p2077
I5
sVinferred
p2078
I0
ssVTm3a-E
p2079
(dp2080
Vsynapses
p2081
I1
sVinferred
p2082
I0
ssVC3-A
p2083
(dp2084
Vsynapses
p2085
I1
sVinferred
p2086
I0
ssVTm3a-home
p2087
(dp2088
Vsynapses
p2089
I4
sVinferred
p2090
I0
ssVC3-P
p2091
(dp2092
Vsynapses
p2093
I3
sVinferred
p2094
I0
sssVL1-home
p2095
(dp2096
VTm3a-I
p2097
(dp2098
Vsynapses
p2099
I1
sVinferred
p2100
I0
ssVTm3a-A
p2101
(dp2102
Vsynapses
p2103
I9
sVinferred
p2104
I0
ssVTm3a-home
p2105
(dp2106
Vsynapses
p2107
I15
sVinferred
p2108
I0
ssVTm3a-C
p2109
(dp2110
Vsynapses
p2111
I32
sVinferred
p2112
I0
ssVL5-home
p2113
(dp2114
Vsynapses
p2115
I123
sVinferred
p2116
I0
ssVTm3p-E
p2117
(dp2118
Vsynapses
p2119
I17
sVinferred
p2120
I0
ssVTm3a-B
p2121
(dp2122
Vsynapses
p2123
I46
sVinferred
p2124
I0
ssVC2-home
p2125
(dp2126
Vsynapses
p2127
I57
sVinferred
p2128
I0
ssVMi1-home
p2129
(dp2130
Vsynapses
p2131
I150
sVinferred
p2132
I0
ssVC3-home
p2133
(dp2134
Vsynapses
p2135
I105
sVinferred
p2136
I0
ssVL5-D
p2137
(dp2138
Vsynapses
p2139
I4
sVinferred
p2140
I0
ssVTm3p-home
p2141
(dp2142
Vsynapses
p2143
I10
sVinferred
p2144
I0
ssVTm3p-D
p2145
(dp2146
Vsynapses
p2147
I5
sVinferred
p2148
I0
sssVT2-A
p2149
(dp2150
VMi1-A
p2151
(dp2152
Vsynapses
p2153
I2
sVinferred
p2154
I0
ssVTm3a-A
p2155
(dp2156
Vsynapses
p2157
I2
sVinferred
p2158
I0
sssVC2-A
p2159
(dp2160
VMi1-A
p2161
(dp2162
Vsynapses
p2163
I15
sVinferred
p2164
I0
ssVL1-A
p2165
(dp2166
Vsynapses
p2167
I21
sVinferred
p2168
I0
ssVL5-A
p2169
(dp2170
Vsynapses
p2171
I21
sVinferred
p2172
I0
sssVC2-B
p2173
(dp2174
VL1-B
p2175
(dp2176
Vsynapses
p2177
I32
sVinferred
p2178
I0
ssVTm3a-I
p2179
(dp2180
Vsynapses
p2181
I1
sVinferred
p2182
I0
ssVTm3a-C
p2183
(dp2184
Vsynapses
p2185
I1
sVinferred
p2186
I0
ssVL5-home
p2187
(dp2188
Vsynapses
p2189
I1
sVinferred
p2190
I0
ssVMi1-B
p2191
(dp2192
Vsynapses
p2193
I21
sVinferred
p2194
I0
ssVC3-B
p2195
(dp2196
Vsynapses
p2197
I3
sVinferred
p2198
I0
ssVL5-B
p2199
(dp2200
Vsynapses
p2201
I29
sVinferred
p2202
I0
ssVTm3p-home
p2203
(dp2204
Vsynapses
p2205
I1
sVinferred
p2206
I0
sssVC2-C
p2207
(dp2208
VL1-C
p2209
(dp2210
Vsynapses
p2211
I31
sVinferred
p2212
I0
ssVMi1-C
p2213
(dp2214
Vsynapses
p2215
I17
sVinferred
p2216
I0
ssVC2-C
p2217
(dp2218
Vsynapses
p2219
I1
sVinferred
p2220
I0
ssVL5-C
p2221
(dp2222
Vsynapses
p2223
I25
sVinferred
p2224
I0
sssVC2-D
p2225
(dp2226
VC3-D
p2227
(dp2228
Vsynapses
p2229
I1
sVinferred
p2230
I0
ssVL5-D
p2231
(dp2232
Vsynapses
p2233
I28
sVinferred
p2234
I0
ssVMi1-D
p2235
(dp2236
Vsynapses
p2237
I12
sVinferred
p2238
I0
ssVL1-D
p2239
(dp2240
Vsynapses
p2241
I30
sVinferred
p2242
I0
sssVL5-P
p2243
(dp2244
VTm3p-P
p2245
(dp2246
Vsynapses
p2247
I19
sVinferred
p2248
I0
ssVL1-P
p2249
(dp2250
Vsynapses
p2251
I22
sVinferred
p2252
I0
ssVC2-home
p2253
(dp2254
Vsynapses
p2255
I1
sVinferred
p2256
I0
ssVMi1-P
p2257
(dp2258
Vsynapses
p2259
I13
sVinferred
p2260
I0
ssVTm3a-D
p2261
(dp2262
Vsynapses
p2263
I10
sVinferred
p2264
I0
ssVTm3a-E
p2265
(dp2266
Vsynapses
p2267
I2
sVinferred
p2268
I0
ssVC3-F
p2269
(dp2270
Vsynapses
p2271
I1
sVinferred
p2272
I0
ssVTm3a-home
p2273
(dp2274
Vsynapses
p2275
I9
sVinferred
p2276
I0
ssVC3-E
p2277
(dp2278
Vsynapses
p2279
I3
sVinferred
p2280
I0
ssVC2-C
p2281
(dp2282
Vsynapses
p2283
I1
sVinferred
p2284
I0
ssVL1-F
p2285
(dp2286
Vsynapses
p2287
I1
sVinferred
p2288
I0
ssVC2-E
p2289
(dp2290
Vsynapses
p2291
I8
sVinferred
p2292
I0
ssVC2-F
p2293
(dp2294
Vsynapses
p2295
I5
sVinferred
p2296
I0
ssVMi1-F
p2297
(dp2298
Vsynapses
p2299
I2
sVinferred
p2300
I0
ssVL5-F
p2301
(dp2302
Vsynapses
p2303
I2
sVinferred
p2304
I0
ssVMi1-E
p2305
(dp2306
Vsynapses
p2307
I2
sVinferred
p2308
I0
ssVL5-E
p2309
(dp2310
Vsynapses
p2311
I1
sVinferred
p2312
I0
ssVC3-P
p2313
(dp2314
Vsynapses
p2315
I7
sVinferred
p2316
I0
sssVC2-F
p2317
(dp2318
VL5-F
p2319
(dp2320
Vsynapses
p2321
I24
sVinferred
p2322
I0
ssVL1-F
p2323
(dp2324
Vsynapses
p2325
I24
sVinferred
p2326
I0
ssVMi1-F
p2327
(dp2328
Vsynapses
p2329
I16
sVinferred
p2330
I0
sssVMi1-A
p2331
(dp2332
VTm3p-A
p2333
(dp2334
Vsynapses
p2335
I9
sVinferred
p2336
I0
ssVC2-home
p2337
(dp2338
Vsynapses
p2339
I1
sVinferred
p2340
I0
ssVT2-A
p2341
(dp2342
Vsynapses
p2343
I11
sVinferred
p2344
I0
ssVC3-A
p2345
(dp2346
Vsynapses
p2347
I3
sVinferred
p2348
I0
ssVTm3a-A
p2349
(dp2350
Vsynapses
p2351
I19
sVinferred
p2352
I0
ssVTm3a-home
p2353
(dp2354
Vsynapses
p2355
I6
sVinferred
p2356
I0
ssVTm3a-C
p2357
(dp2358
Vsynapses
p2359
I4
sVinferred
p2360
I0
ssVMi1-A
p2361
(dp2362
Vsynapses
p2363
I5
sVinferred
p2364
I0
ssVC2-A
p2365
(dp2366
Vsynapses
p2367
I12
sVinferred
p2368
I0
ssVL1-A
p2369
(dp2370
Vsynapses
p2371
I22
sVinferred
p2372
I0
ssVTm3a-B
p2373
(dp2374
Vsynapses
p2375
I20
sVinferred
p2376
I0
ssVC2-F
p2377
(dp2378
Vsynapses
p2379
I1
sVinferred
p2380
I0
ssVTm3p-home
p2381
(dp2382
Vsynapses
p2383
I3
sVinferred
p2384
I0
ssVL5-A
p2385
(dp2386
Vsynapses
p2387
I11
sVinferred
p2388
I0
sssVC3-B
p2389
(dp2390
VL5-home
p2391
(dp2392
Vsynapses
p2393
I1
sVinferred
p2394
I0
ssVMi1-B
p2395
(dp2396
Vsynapses
p2397
I5
sVinferred
p2398
I0
ssVL5-B
p2399
(dp2400
Vsynapses
p2401
I15
sVinferred
p2402
I0
sssVR7-P
p2403
(dp2404
VMi1-P
p2405
(dp2406
Vsynapses
p2407
I2
sVinferred
p2408
I0
ssVL1-P
p2409
(dp2410
Vsynapses
p2411
I1
sVinferred
p2412
I0
sssVL1-R
p2413
(dp2414
VT2-A
p2415
(dp2416
Vsynapses
p2417
I1
sVinferred
p2418
I0
ssVTm3a-A
p2419
(dp2420
Vsynapses
p2421
I7
sVinferred
p2422
I0
ssVTm3a-B
p2423
(dp2424
Vsynapses
p2425
I2
sVinferred
p2426
I0
sssVL1-P
p2427
(dp2428
VTm3p-P
p2429
(dp2430
Vsynapses
p2431
I38
sVinferred
p2432
I0
ssVMi1-P
p2433
(dp2434
Vsynapses
p2435
I33
sVinferred
p2436
I0
ssVTm3a-D
p2437
(dp2438
Vsynapses
p2439
I7
sVinferred
p2440
I0
ssVTm3a-E
p2441
(dp2442
Vsynapses
p2443
I4
sVinferred
p2444
I0
ssVTm3a-home
p2445
(dp2446
Vsynapses
p2447
I7
sVinferred
p2448
I0
ssVL5-P
p2449
(dp2450
Vsynapses
p2451
I77
sVinferred
p2452
I0
ssVC3-P
p2453
(dp2454
Vsynapses
p2455
I15
sVinferred
p2456
I0
ssVR7-P
p2457
(dp2458
Vsynapses
p2459
I1
sVinferred
p2460
I0
sssVL1-Q
p2461
(dp2462
VMi1-Q
p2463
(dp2464
Vsynapses
p2465
I64
sVinferred
p2466
I0
ssVTm3p-P
p2467
(dp2468
Vsynapses
p2469
I5
sVinferred
p2470
I0
ssVC2-Q
p2471
(dp2472
Vsynapses
p2473
I34
sVinferred
p2474
I0
ssVL5-Q
p2475
(dp2476
Vsynapses
p2477
I66
sVinferred
p2478
I0
ssVMi4-Q
p2479
(dp2480
Vsynapses
p2481
I1
sVinferred
p2482
I0
ssVL5-F
p2483
(dp2484
Vsynapses
p2485
I2
sVinferred
p2486
I0
ssVC3-Q
p2487
(dp2488
Vsynapses
p2489
I44
sVinferred
p2490
I0
sssVTm3a-I
p2491
(dp2492
VL1-B
p2493
(dp2494
Vsynapses
p2495
I3
sVinferred
p2496
I0
ssVTm3p-B
p2497
(dp2498
Vsynapses
p2499
I1
sVinferred
p2500
I0
ssVTm3a-B
p2501
(dp2502
Vsynapses
p2503
I2
sVinferred
p2504
I0
ssVTm3p-A
p2505
(dp2506
Vsynapses
p2507
I1
sVinferred
p2508
I0
ssVMi1-B
p2509
(dp2510
Vsynapses
p2511
I3
sVinferred
p2512
I0
ssVTm3p-home
p2513
(dp2514
Vsynapses
p2515
I1
sVinferred
p2516
I0
sssVTm3a-K
p2517
(dp2518
VC3-C
p2519
(dp2520
Vsynapses
p2521
I2
sVinferred
p2522
I0
ssVTm3p-home
p2523
(dp2524
Vsynapses
p2525
I2
sVinferred
p2526
I0
ssVL1-C
p2527
(dp2528
Vsynapses
p2529
I8
sVinferred
p2530
I0
ssVMi1-C
p2531
(dp2532
Vsynapses
p2533
I2
sVinferred
p2534
I0
ssVTm3p-B
p2535
(dp2536
Vsynapses
p2537
I1
sVinferred
p2538
I0
ssVTm3p-D
p2539
(dp2540
Vsynapses
p2541
I4
sVinferred
p2542
I0
ssVL5-C
p2543
(dp2544
Vsynapses
p2545
I1
sVinferred
p2546
I0
ssVL1-L
p2547
(dp2548
Vsynapses
p2549
I2
sVinferred
p2550
I0
ssVTm3p-N
p2551
(dp2552
Vsynapses
p2553
I1
sVinferred
p2554
I0
sssVTm3a-D
p2555
(dp2556
VL1-P
p2557
(dp2558
Vsynapses
p2559
I1
sVinferred
p2560
I0
ssVTm3a-D
p2561
(dp2562
Vsynapses
p2563
I1
sVinferred
p2564
I0
ssVTm3a-home
p2565
(dp2566
Vsynapses
p2567
I1
sVinferred
p2568
I0
ssVTm3p-E
p2569
(dp2570
Vsynapses
p2571
I1
sVinferred
p2572
I0
ssVL1-E
p2573
(dp2574
Vsynapses
p2575
I1
sVinferred
p2576
I0
ssVTm3p-N
p2577
(dp2578
Vsynapses
p2579
I1
sVinferred
p2580
I0
sssVC3-home
p2581
(dp2582
VL5-home
p2583
(dp2584
Vsynapses
p2585
I23
sVinferred
p2586
I0
ssVMi1-home
p2587
(dp2588
Vsynapses
p2589
I1
sVinferred
p2590
I0
sssVTm3a-A
p2591
(dp2592
VL1-R
p2593
(dp2594
Vsynapses
p2595
I3
sVinferred
p2596
I0
ssVC3-home
p2597
(dp2598
Vsynapses
p2599
I1
sVinferred
p2600
I0
ssVTm3a-B
p2601
(dp2602
Vsynapses
p2603
I3
sVinferred
p2604
I0
ssVT2-A
p2605
(dp2606
Vsynapses
p2607
I5
sVinferred
p2608
I0
ssVC2-A
p2609
(dp2610
Vsynapses
p2611
I2
sVinferred
p2612
I0
ssVL1-A
p2613
(dp2614
Vsynapses
p2615
I3
sVinferred
p2616
I0
ssVL1-F
p2617
(dp2618
Vsynapses
p2619
I4
sVinferred
p2620
I0
ssVTm3a-home
p2621
(dp2622
Vsynapses
p2623
I4
sVinferred
p2624
I0
ssVMi1-F
p2625
(dp2626
Vsynapses
p2627
I1
sVinferred
p2628
I0
ssVMi1-home
p2629
(dp2630
Vsynapses
p2631
I1
sVinferred
p2632
I0
sssVTm3a-B
p2633
(dp2634
VTm3p-home
p2635
(dp2636
Vsynapses
p2637
I1
sVinferred
p2638
I0
ssVTm3p-A
p2639
(dp2640
Vsynapses
p2641
I1
sVinferred
p2642
I0
ssVTm3p-E
p2643
(dp2644
Vsynapses
p2645
I3
sVinferred
p2646
I0
ssVTm3p-P
p2647
(dp2648
Vsynapses
p2649
I1
sVinferred
p2650
I0
ssVTm3p-B
p2651
(dp2652
Vsynapses
p2653
I1
sVinferred
p2654
I0
ssVTm3a-A
p2655
(dp2656
Vsynapses
p2657
I7
sVinferred
p2658
I0
ssVTm3a-home
p2659
(dp2660
Vsynapses
p2661
I3
sVinferred
p2662
I0
ssVTm3a-C
p2663
(dp2664
Vsynapses
p2665
I1
sVinferred
p2666
I0
ssVL5-home
p2667
(dp2668
Vsynapses
p2669
I1
sVinferred
p2670
I0
ssVC2-A
p2671
(dp2672
Vsynapses
p2673
I1
sVinferred
p2674
I0
ssVL1-A
p2675
(dp2676
Vsynapses
p2677
I4
sVinferred
p2678
I0
ssVL1-home
p2679
(dp2680
Vsynapses
p2681
I6
sVinferred
p2682
I0
ssVMi1-A
p2683
(dp2684
Vsynapses
p2685
I1
sVinferred
p2686
I0
ssVL1-F
p2687
(dp2688
Vsynapses
p2689
I2
sVinferred
p2690
I0
ssVL1-B
p2691
(dp2692
Vsynapses
p2693
I1
sVinferred
p2694
I0
ssVMi1-home
p2695
(dp2696
Vsynapses
p2697
I2
sVinferred
p2698
I0
sssVTm3a-C
p2699
(dp2700
VTm3p-E
p2701
(dp2702
Vsynapses
p2703
I5
sVinferred
p2704
I0
ssVTm3a-B
p2705
(dp2706
Vsynapses
p2707
I5
sVinferred
p2708
I0
ssVTm3a-A
p2709
(dp2710
Vsynapses
p2711
I2
sVinferred
p2712
I0
ssVTm3a-home
p2713
(dp2714
Vsynapses
p2715
I3
sVinferred
p2716
I0
ssVTm3a-C
p2717
(dp2718
Vsynapses
p2719
I3
sVinferred
p2720
I0
ssVTm3p-A
p2721
(dp2722
Vsynapses
p2723
I1
sVinferred
p2724
I0
ssVL1-A
p2725
(dp2726
Vsynapses
p2727
I2
sVinferred
p2728
I0
ssVL1-home
p2729
(dp2730
Vsynapses
p2731
I8
sVinferred
p2732
I0
ssVTm3p-D
p2733
(dp2734
Vsynapses
p2735
I6
sVinferred
p2736
I0
ssVL1-D
p2737
(dp2738
Vsynapses
p2739
I6
sVinferred
p2740
I0
ssVC3-home
p2741
(dp2742
Vsynapses
p2743
I1
sVinferred
p2744
I0
ssVL5-A
p2745
(dp2746
Vsynapses
p2747
I1
sVinferred
p2748
I0
ssVTm3p-home
p2749
(dp2750
Vsynapses
p2751
I6
sVinferred
p2752
I0
ssVMi1-D
p2753
(dp2754
Vsynapses
p2755
I2
sVinferred
p2756
I0
sssVL1-B
p2757
(dp2758
VL5-home
p2759
(dp2760
Vsynapses
p2761
I4
sVinferred
p2762
I0
ssVTm3a-I
p2763
(dp2764
Vsynapses
p2765
I22
sVinferred
p2766
I0
ssVTm3a-K
p2767
(dp2768
Vsynapses
p2769
I2
sVinferred
p2770
I0
ssVTm3p-B
p2771
(dp2772
Vsynapses
p2773
I27
sVinferred
p2774
I0
ssVTm3a-B
p2775
(dp2776
Vsynapses
p2777
I16
sVinferred
p2778
I0
ssVTm3a-C
p2779
(dp2780
Vsynapses
p2781
I9
sVinferred
p2782
I0
ssVTm3p-A
p2783
(dp2784
Vsynapses
p2785
I10
sVinferred
p2786
I0
ssVC2-B
p2787
(dp2788
Vsynapses
p2789
I59
sVinferred
p2790
I0
ssVMi1-B
p2791
(dp2792
Vsynapses
p2793
I180
sVinferred
p2794
I0
ssVLawf2-1
p2795
(dp2796
Vsynapses
p2797
I2
sVinferred
p2798
I0
ssVC3-B
p2799
(dp2800
Vsynapses
p2801
I88
sVinferred
p2802
I0
ssVL5-B
p2803
(dp2804
Vsynapses
p2805
I156
sVinferred
p2806
I0
ssVTm3p-home
p2807
(dp2808
Vsynapses
p2809
I23
sVinferred
p2810
I0
sssVL1-C
p2811
(dp2812
VTm3p-home
p2813
(dp2814
Vsynapses
p2815
I28
sVinferred
p2816
I0
ssVTm3a-K
p2817
(dp2818
Vsynapses
p2819
I37
sVinferred
p2820
I0
ssVTm3p-B
p2821
(dp2822
Vsynapses
p2823
I10
sVinferred
p2824
I0
ssVMi1-C
p2825
(dp2826
Vsynapses
p2827
I159
sVinferred
p2828
I0
ssVC3-C
p2829
(dp2830
Vsynapses
p2831
I97
sVinferred
p2832
I0
ssVTm3a-C
p2833
(dp2834
Vsynapses
p2835
I18
sVinferred
p2836
I0
ssVL5-L
p2837
(dp2838
Vsynapses
p2839
I1
sVinferred
p2840
I0
ssVC2-C
p2841
(dp2842
Vsynapses
p2843
I54
sVinferred
p2844
I0
ssVTm3p-D
p2845
(dp2846
Vsynapses
p2847
I13
sVinferred
p2848
I0
ssVL5-C
p2849
(dp2850
Vsynapses
p2851
I143
sVinferred
p2852
I0
sssVL1-A
p2853
(dp2854
VTm3p-A
p2855
(dp2856
Vsynapses
p2857
I16
sVinferred
p2858
I0
ssVTm3a-I
p2859
(dp2860
Vsynapses
p2861
I1
sVinferred
p2862
I0
ssVC3-A
p2863
(dp2864
Vsynapses
p2865
I77
sVinferred
p2866
I0
ssVTm3a-A
p2867
(dp2868
Vsynapses
p2869
I29
sVinferred
p2870
I0
ssVTm3a-B
p2871
(dp2872
Vsynapses
p2873
I31
sVinferred
p2874
I0
ssVTm3a-C
p2875
(dp2876
Vsynapses
p2877
I2
sVinferred
p2878
I0
ssVMi1-A
p2879
(dp2880
Vsynapses
p2881
I153
sVinferred
p2882
I0
ssVC2-A
p2883
(dp2884
Vsynapses
p2885
I56
sVinferred
p2886
I0
ssVTm3a-home
p2887
(dp2888
Vsynapses
p2889
I3
sVinferred
p2890
I0
ssVTm3p-home
p2891
(dp2892
Vsynapses
p2893
I1
sVinferred
p2894
I0
ssVL5-A
p2895
(dp2896
Vsynapses
p2897
I117
sVinferred
p2898
I0
sssVL1-F
p2899
(dp2900
VTm3p-P
p2901
(dp2902
Vsynapses
p2903
I14
sVinferred
p2904
I0
ssVC3-F
p2905
(dp2906
Vsynapses
p2907
I65
sVinferred
p2908
I0
ssVTm3a-A
p2909
(dp2910
Vsynapses
p2911
I15
sVinferred
p2912
I0
ssVTm3a-home
p2913
(dp2914
Vsynapses
p2915
I34
sVinferred
p2916
I0
ssVTm3p-E
p2917
(dp2918
Vsynapses
p2919
I1
sVinferred
p2920
I0
ssVTm3a-B
p2921
(dp2922
Vsynapses
p2923
I9
sVinferred
p2924
I0
ssVC2-F
p2925
(dp2926
Vsynapses
p2927
I55
sVinferred
p2928
I0
ssVMi1-F
p2929
(dp2930
Vsynapses
p2931
I133
sVinferred
p2932
I0
ssVL5-F
p2933
(dp2934
Vsynapses
p2935
I121
sVinferred
p2936
I0
sssVTm3p-D
p2937
(dp2938
VTm3a-K
p2939
(dp2940
Vsynapses
p2941
I2
sVinferred
p2942
I0
ssVTm3a-C
p2943
(dp2944
Vsynapses
p2945
I2
sVinferred
p2946
I0
ssVL1-C
p2947
(dp2948
Vsynapses
p2949
I1
sVinferred
p2950
I0
ssVMi1-C
p2951
(dp2952
Vsynapses
p2953
I1
sVinferred
p2954
I0
ssVL1-home
p2955
(dp2956
Vsynapses
p2957
I1
sVinferred
p2958
I0
ssVMi1-D
p2959
(dp2960
Vsynapses
p2961
I1
sVinferred
p2962
I0
ssVL1-D
p2963
(dp2964
Vsynapses
p2965
I5
sVinferred
p2966
I0
ssVLawf2-1
p2967
(dp2968
Vsynapses
p2969
I1
sVinferred
p2970
I0
ssVTm3p-E
p2971
(dp2972
Vsynapses
p2973
I4
sVinferred
p2974
I0
ssVL1-L
p2975
(dp2976
Vsynapses
p2977
I1
sVinferred
p2978
I0
sssVL1-D
p2979
(dp2980
VTm3a-D
p2981
(dp2982
Vsynapses
p2983
I2
sVinferred
p2984
I0
ssVC3-D
p2985
(dp2986
Vsynapses
p2987
I65
sVinferred
p2988
I0
ssVMi1-D
p2989
(dp2990
Vsynapses
p2991
I161
sVinferred
p2992
I0
ssVTm3a-home
p2993
(dp2994
Vsynapses
p2995
I1
sVinferred
p2996
I0
ssVTm3a-C
p2997
(dp2998
Vsynapses
p2999
I20
sVinferred
p3000
I0
ssVC2-D
p3001
(dp3002
Vsynapses
p3003
I56
sVinferred
p3004
I0
ssVTm3p-D
p3005
(dp3006
Vsynapses
p3007
I18
sVinferred
p3008
I0
ssVTm3p-E
p3009
(dp3010
Vsynapses
p3011
I21
sVinferred
p3012
I0
ssVL5-D
p3013
(dp3014
Vsynapses
p3015
I153
sVinferred
p3016
I0
ssVTm3p-N
p3017
(dp3018
Vsynapses
p3019
I11
sVinferred
p3020
I0
sssVTm3a-E
p3021
(dp3022
VTm3a-D
p3023
(dp3024
Vsynapses
p3025
I1
sVinferred
p3026
I0
ssVTm3a-E
p3027
(dp3028
Vsynapses
p3029
I1
sVinferred
p3030
I0
ssVL1-P
p3031
(dp3032
Vsynapses
p3033
I1
sVinferred
p3034
I0
ssVTm3p-P
p3035
(dp3036
Vsynapses
p3037
I1
sVinferred
p3038
I0
sssVL1-J
p3039
(dp3040
VL5-J
p3041
(dp3042
Vsynapses
p3043
I1
sVinferred
p3044
I0
sssVTm3p-E
p3045
(dp3046
VC2-D
p3047
(dp3048
Vsynapses
p3049
I1
sVinferred
p3050
I0
ssVTm3p-P
p3051
(dp3052
Vsynapses
p3053
I1
sVinferred
p3054
I0
ssVL1-home
p3055
(dp3056
Vsynapses
p3057
I4
sVinferred
p3058
I0
ssVTm3a-D
p3059
(dp3060
Vsynapses
p3061
I1
sVinferred
p3062
I0
ssVTm3a-B
p3063
(dp3064
Vsynapses
p3065
I1
sVinferred
p3066
I0
ssVTm3a-A
p3067
(dp3068
Vsynapses
p3069
I1
sVinferred
p3070
I0
ssVTm3a-home
p3071
(dp3072
Vsynapses
p3073
I6
sVinferred
p3074
I0
ssVTm3a-C
p3075
(dp3076
Vsynapses
p3077
I3
sVinferred
p3078
I0
ssVC3-E
p3079
(dp3080
Vsynapses
p3081
I3
sVinferred
p3082
I0
ssVMi1-E
p3083
(dp3084
Vsynapses
p3085
I3
sVinferred
p3086
I0
ssVTm3p-D
p3087
(dp3088
Vsynapses
p3089
I2
sVinferred
p3090
I0
ssVL1-D
p3091
(dp3092
Vsynapses
p3093
I1
sVinferred
p3094
I0
ssVL1-E
p3095
(dp3096
Vsynapses
p3097
I8
sVinferred
p3098
I0
ssVL1-F
p3099
(dp3100
Vsynapses
p3101
I2
sVinferred
p3102
I0
ssVL5-E
p3103
(dp3104
Vsynapses
p3105
I1
sVinferred
p3106
I0
ssVTm3p-N
p3107
(dp3108
Vsynapses
p3109
I1
sVinferred
p3110
I0
ssVMi1-D
p3111
(dp3112
Vsynapses
p3113
I1
sVinferred
p3114
I0
sssVL5-C
p3115
(dp3116
VC3-C
p3117
(dp3118
Vsynapses
p3119
I13
sVinferred
p3120
I0
ssVC3-B
p3121
(dp3122
Vsynapses
p3123
I2
sVinferred
p3124
I0
ssVL5-L
p3125
(dp3126
Vsynapses
p3127
I1
sVinferred
p3128
I0
ssVL5-J
p3129
(dp3130
Vsynapses
p3131
I1
sVinferred
p3132
I0
ssVC2-home
p3133
(dp3134
Vsynapses
p3135
I4
sVinferred
p3136
I0
ssVTm3p-home
p3137
(dp3138
Vsynapses
p3139
I21
sVinferred
p3140
I0
ssVL5-C
p3141
(dp3142
Vsynapses
p3143
I1
sVinferred
p3144
I0
ssVMi1-B
p3145
(dp3146
Vsynapses
p3147
I5
sVinferred
p3148
I0
ssVMi1-C
p3149
(dp3150
Vsynapses
p3151
I41
sVinferred
p3152
I0
ssVTm3p-B
p3153
(dp3154
Vsynapses
p3155
I7
sVinferred
p3156
I0
ssVTm3p-D
p3157
(dp3158
Vsynapses
p3159
I4
sVinferred
p3160
I0
ssVC3-home
p3161
(dp3162
Vsynapses
p3163
I2
sVinferred
p3164
I0
ssVMi1-D
p3165
(dp3166
Vsynapses
p3167
I2
sVinferred
p3168
I0
ssVC2-B
p3169
(dp3170
Vsynapses
p3171
I2
sVinferred
p3172
I0
ssVC2-C
p3173
(dp3174
Vsynapses
p3175
I4
sVinferred
p3176
I0
ssVC2-D
p3177
(dp3178
Vsynapses
p3179
I1
sVinferred
p3180
I0
ssVC2-E
p3181
(dp3182
Vsynapses
p3183
I3
sVinferred
p3184
I0
ssVMi1-home
p3185
(dp3186
Vsynapses
p3187
I3
sVinferred
p3188
I0
ssVTm3a-K
p3189
(dp3190
Vsynapses
p3191
I14
sVinferred
p3192
I0
ssVTm3a-B
p3193
(dp3194
Vsynapses
p3195
I2
sVinferred
p3196
I0
ssVTm3a-C
p3197
(dp3198
Vsynapses
p3199
I8
sVinferred
p3200
I0
ssVL1-C
p3201
(dp3202
Vsynapses
p3203
I43
sVinferred
p3204
I0
sssVL1-L
p3205
(dp3206
VTm3p-D
p3207
(dp3208
Vsynapses
p3209
I4
sVinferred
p3210
I0
ssVL5-L
p3211
(dp3212
Vsynapses
p3213
I15
sVinferred
p3214
I0
ssVDm4-0
p3215
(dp3216
Vsynapses
p3217
I1
sVinferred
p3218
I0
ssVL1-L
p3219
(dp3220
Vsynapses
p3221
I1
sVinferred
p3222
I0
ssVTm3a-K
p3223
(dp3224
Vsynapses
p3225
I10
sVinferred
p3226
I0
sssVC2-E
p3227
(dp3228
VTm3a-D
p3229
(dp3230
Vsynapses
p3231
I1
sVinferred
p3232
I0
ssVC3-E
p3233
(dp3234
Vsynapses
p3235
I1
sVinferred
p3236
I0
ssVMi1-E
p3237
(dp3238
Vsynapses
p3239
I9
sVinferred
p3240
I0
ssVL1-E
p3241
(dp3242
Vsynapses
p3243
I17
sVinferred
p3244
I0
ssVMi1-home
p3245
(dp3246
Vsynapses
p3247
I1
sVinferred
p3248
I0
ssVL5-E
p3249
(dp3250
Vsynapses
p3251
I22
sVinferred
p3252
I0
ssss.