(dp0
S'Cha-F-600263'
p1
S'MED'
p2
sS'fru-F-000069'
p3
S'OPTU'
p4
sS'Gad1-F-900119'
p5
S'OPTU'
p6
sS'Gad1-F-200078'
p7
S'SPP'
p8
sS'Cha-F-100165'
p9
S'OPTU'
p10
sS'VGlut-F-500874'
p11
S'FB'
p12
sS'VGlut-F-000453'
p13
S'CCP'
p14
sS'fru-F-300171'
p15
S'LOB'
p16
sS'fru-F-600020'
p17
S'DLP'
p18
sS'fru-F-600151'
p19
S'OPTU'
p20
sS'Gad1-F-900198'
p21
S'DLP'
p22
sS'Cha-F-000280'
p23
S'OPTU'
p24
sS'Gad1-F-400023'
p25
S'MED'
p26
sS'Cha-F-600239'
p27
S'MED'
p28
sS'Cha-F-600143'
p29
S'IDFP'
p30
sS'Cha-F-500297'
p31
S'dmp'
p32
sS'VGlut-F-400880'
p33
S'eb'
p34
sS'fru-F-300168'
p35
S'CCP'
p36
sS'npf-F-500000'
p37
S'OPTU'
p38
sS'VGlut-F-000465'
p39
S'OPTU'
p40
sS'Gad1-F-000117'
p41
S'DMP'
p42
sS'Gad1-F-200218'
p43
S'OPTU'
p44
sS'Gad1-F-200003'
p45
S'OPTU'
p46
sS'Cha-F-500233'
p47
S'MED'
p48
sS'Cha-F-300281'
p49
S'MED'
p50
sS'fru-F-200039'
p51
S'optu'
p52
sS'Cha-F-400194'
p53
S'MED'
p54
s.