(dp0
S'neurons'
p1
(dp2
S'Cha-F-600263'
p3
(dp4
S'pre'
p5
S'MED'
p6
sS'index'
p7
I5
sS'mem_model'
p8
S'LIF'
p9
sS'name'
p10
S'naff_Cha-F-600263'
p11
ssS'fru-F-000069'
p12
(dp13
g7
I5
sg8
g9
sg10
g12
ssS'Gad1-F-900119'
p14
(dp15
g5
S'OPTU'
p16
sg7
I7
sg8
g9
sg10
S'naff_Gad1-F-900119'
p17
ssS'Gad1-F-200078'
p18
(dp19
g7
I0
sg8
g9
sg10
g18
ssS'Cha-F-100165'
p20
(dp21
g5
S'OPTU'
p22
sg7
I0
sg8
g9
sg10
S'naff_Cha-F-100165'
p23
ssS'VGlut-F-500874'
p24
(dp25
g7
I0
sg8
g9
sg10
g24
ssS'VGlut-F-000453'
p26
(dp27
g7
I1
sg8
g9
sg10
g26
ssS'fru-F-300171'
p28
(dp29
g5
S'LOB'
p30
sg7
I0
sg8
g9
sg10
S'naff_fru-F-300171'
p31
ssS'fru-F-600020'
p32
(dp33
g5
S'DLP'
p34
sg7
I1
sg8
g9
sg10
S'naff_fru-F-600020'
p35
ssS'fru-F-600151'
p36
(dp37
g7
I2
sg8
g9
sg10
g36
ssS'Gad1-F-900198'
p38
(dp39
g5
S'DLP'
p40
sg7
I0
sg8
g9
sg10
S'naff_Gad1-F-900198'
p41
ssS'Cha-F-000280'
p42
(dp43
g5
S'OPTU'
p44
sg7
I4
sg8
g9
sg10
S'naff_Cha-F-000280'
p45
ssS'Gad1-F-400023'
p46
(dp47
g5
S'MED'
p48
sg7
I1
sg8
g9
sg10
S'naff_Gad1-F-400023'
p49
ssS'Cha-F-600239'
p50
(dp51
g5
S'MED'
p52
sg7
I2
sg8
g9
sg10
S'naff_Cha-F-600239'
p53
ssS'Cha-F-600143'
p54
(dp55
g7
I0
sg8
g9
sg10
g54
ssS'Cha-F-500297'
p56
(dp57
g7
I0
sg8
g9
sg10
g56
ssS'VGlut-F-400880'
p58
(dp59
g5
S'eb'
p60
sg7
I0
sg8
g9
sg10
S'naff_VGlut-F-400880'
p61
ssS'fru-F-300168'
p62
(dp63
g7
I0
sg8
g9
sg10
g62
ssS'npf-F-500000'
p64
(dp65
g5
S'OPTU'
p66
sg7
I8
sg8
g9
sg10
S'naff_npf-F-500000'
p67
ssS'VGlut-F-000465'
p68
(dp69
g7
I3
sg8
g9
sg10
g68
ssS'Gad1-F-000117'
p70
(dp71
g7
I0
sg8
g9
sg10
g70
ssS'Gad1-F-200218'
p72
(dp73
g5
S'OPTU'
p74
sg7
I6
sg8
g9
sg10
S'naff_Gad1-F-200218'
p75
ssS'Gad1-F-200003'
p76
(dp77
g7
I1
sg8
g9
sg10
g76
ssS'Cha-F-500233'
p78
(dp79
g5
S'MED'
p80
sg7
I4
sg8
g9
sg10
S'naff_Cha-F-500233'
p81
ssS'Cha-F-300281'
p82
(dp83
g5
S'MED'
p84
sg7
I3
sg8
g9
sg10
S'naff_Cha-F-300281'
p85
ssS'fru-F-200039'
p86
(dp87
g7
I0
sg8
g9
sg10
g86
ssS'Cha-F-400194'
p88
(dp89
g5
S'MED'
p90
sg7
I0
sg8
g9
sg10
S'naff_Cha-F-400194'
p91
sssS'projections'
p92
(dp93
g22
(dp94
g30
(lp95
(I7
I0
I2
tp96
a(I8
I0
I4
tp97
asS'dmp'
p98
(lp99
(I7
I0
I1
tp100
a(I8
I0
I5
tp101
asS'SPP'
p102
(lp103
(I6
I0
I1
tp104
a(I1
I0
I1
tp105
asS'CCP'
p106
(lp107
(I6
I0
I2
tp108
a(I7
I1
I14
tp109
a(I8
I1
I5
tp110
a(I8
I0
I10
tp111
asS'DMP'
p112
(lp113
(I1
I0
I1
tp114
a(I2
I0
I1
tp115
a(I8
I0
I1
tp116
asS'OPTU'
p117
(lp118
(I0
I1
I4
tp119
a(I4
I3
I2
tp120
a(I4
I2
I16
tp121
a(I1
I4
I2
tp122
a(I7
I5
I26
tp123
a(I8
I3
I7
tp124
a(I8
I5
I21
tp125
assg90
(dp126
g102
(lp127
(I0
I0
I7
tp128
a(I1
I0
I4
tp129
a(I2
I0
I3
tp130
a(I4
I0
I2
tp131
asS'OPTU'
p132
(lp133
(I0
I2
I3
tp134
a(I1
I4
I2
tp135
a(I1
I3
I1
tp136
a(I1
I2
I5
tp137
a(I2
I3
I3
tp138
a(I3
I3
I2
tp139
a(I3
I4
I1
tp140
a(I4
I4
I2
tp141
a(I4
I2
I1
tp142
a(I5
I4
I2
tp143
asg112
(lp144
(I2
I0
I7
tp145
asS'optu'
p146
(lp147
(I2
I0
I1
tp148
a(I4
I0
I4
tp149
asg106
(lp150
(I2
I0
I1
tp151
a(I3
I0
I1
tp152
a(I3
I1
I1
tp153
a(I4
I0
I5
tp154
assg30
(dp155
g98
(lp156
(I0
I0
I4
tp157
asS'OPTU'
p158
(lp159
(I0
I3
I2
tp160
asg106
(lp161
(I0
I0
I4
tp162
a(I0
I1
I3
tp163
asS'IDFP'
p164
(lp165
(I0
I0
I1
tp166
assg40
(dp167
S'OPTU'
p168
(lp169
(I0
I5
I1
tp170
a(I1
I5
I4
tp171
assg60
(dp172
S'FB'
p173
(lp174
(I0
I0
I7
tp175
asssS'population'
p176
(dp177
g30
(lp178
g28
asg90
(lp179
g88
ag46
ag50
ag82
ag78
ag3
asg164
(lp180
g54
asg102
(lp181
g18
asg112
(lp182
g70
asg106
(lp183
g62
ag26
asg60
(lp184
g58
asg98
(lp185
g56
asg146
(lp186
g86
asg173
(lp187
g24
asg40
(lp188
g38
ag32
asg22
(lp189
g20
ag76
ag36
ag68
ag42
ag12
ag72
ag14
ag64
ass.