(dp0
Vsuccess
p1
(dp2
Vrequest
p3
V{u'username': u'guest', u'temp': True, u'format': u'nx', u'server': u'8831243389788893', 'user': 7798083771406523, u'query': [{u'action': {u'method': {u'add_connecting_synapses': {}}}, u'object': {u'state': 0}}]}
p4
sVresult
p5
(dp6
Vnodes
p7
(dp8
V#323:11
p9
(dp10
Vuname
p11
VL1-B
p12
sVname
p13
VL1
p14
sVclass
p15
VNeuron
p16
ssV#367:239
p17
(dp18
VN
p19
I1
sVclass
p20
VSynapse
p21
sVname
p22
VL1_L1
p23
ssV#328:6
p24
(dp25
Vuname
p26
VL1-F
p27
sVname
p28
VL1
p29
sVclass
p30
VNeuron
p31
ssV#326:9
p32
(dp33
Vuname
p34
VL1-J
p35
sVname
p36
VL1
p37
sVclass
p38
VNeuron
p39
ssV#322:2
p40
(dp41
Vuname
p42
VL1-Q
p43
sVname
p44
VL1
p45
sVclass
p46
VNeuron
p47
ssV#321:4
p48
(dp49
Vuname
p50
VL1-A
p51
sVname
p52
VL1
p53
sVclass
p54
VNeuron
p55
ssV#321:6
p56
(dp57
Vuname
p58
VL1-R
p59
sVname
p60
VL1
p61
sVclass
p62
VNeuron
p63
ssV#343:15
p64
(dp65
Vuname
p66
VL1-K
p67
sVname
p68
VL1
p69
sVclass
p70
VNeuron
p71
ssV#331:17
p72
(dp73
Vuname
p74
VL1-E
p75
sVname
p76
VL1
p77
sVclass
p78
VNeuron
p79
ssV#335:17
p80
(dp81
Vjanelia_id
p82
V10319
p83
sVuname
p84
VL1-home
p85
sVname
p86
VL1
p87
sVclass
p88
VNeuron
p89
ssV#335:11
p90
(dp91
Vuname
p92
VL1-L
p93
sVname
p94
VL1
p95
sVclass
p96
VNeuron
p97
ssV#324:15
p98
(dp99
Vuname
p100
VL1-D
p101
sVname
p102
VL1
p103
sVclass
p104
VNeuron
p105
ssV#342:7
p106
(dp107
Vuname
p108
VL1-P
p109
sVname
p110
VL1
p111
sVclass
p112
VNeuron
p113
ssV#337:7
p114
(dp115
Vuname
p116
VL1-C
p117
sVname
p118
VL1
p119
sVclass
p120
VNeuron
p121
sssVedges
p122
(dp123
V#323:11
p124
(dp125
sV#367:239
p126
(dp127
V#335:11
p128
(dp129
V0
p130
(dp131
Vclass
p132
VSendsTo
p133
ssssV#328:6
p134
(dp135
sV#326:9
p136
(dp137
sV#322:2
p138
(dp139
sV#321:4
p140
(dp141
sV#321:6
p142
(dp143
sV#343:15
p144
(dp145
sV#331:17
p146
(dp147
sV#335:17
p148
(dp149
sV#335:11
p150
(dp151
V#367:239
p152
(dp153
V0
p154
(dp155
Vclass
p156
VSendsTo
p157
ssssV#324:15
p158
(dp159
sV#342:7
p160
(dp161
sV#337:7
p162
(dp163
ssss.